
sum1_N:     file format elf64-littleriscv


Disassembly of section .text:

00000000000100b0 <register_fini>:
   100b0:	ffff0797          	auipc	a5,0xffff0
   100b4:	f5078793          	addi	a5,a5,-176 # 0 <register_fini-0x100b0>
   100b8:	c791                	beqz	a5,100c4 <register_fini+0x14>
   100ba:	00000517          	auipc	a0,0x0
   100be:	18050513          	addi	a0,a0,384 # 1023a <__libc_fini_array>
   100c2:	a2b1                	j	1020e <atexit>
   100c4:	8082                	ret

00000000000100c6 <_start>:
   100c6:	00015197          	auipc	gp,0x15
   100ca:	fc218193          	addi	gp,gp,-62 # 25088 <__global_pointer$>
   100ce:	76a18513          	addi	a0,gp,1898 # 257f2 <_edata>
   100d2:	00015617          	auipc	a2,0x15
   100d6:	7b660613          	addi	a2,a2,1974 # 25888 <__BSS_END__>
   100da:	8e09                	sub	a2,a2,a0
   100dc:	4581                	li	a1,0
   100de:	1fe000ef          	jal	ra,102dc <memset>
   100e2:	00000517          	auipc	a0,0x0
   100e6:	15850513          	addi	a0,a0,344 # 1023a <__libc_fini_array>
   100ea:	124000ef          	jal	ra,1020e <atexit>
   100ee:	184000ef          	jal	ra,10272 <__libc_init_array>
   100f2:	4502                	lw	a0,0(sp)
   100f4:	002c                	addi	a1,sp,8
   100f6:	4601                	li	a2,0
   100f8:	060000ef          	jal	ra,10158 <main>
   100fc:	aa39                	j	1021a <exit>

00000000000100fe <__do_global_dtors_aux>:
   100fe:	7981c783          	lbu	a5,1944(gp) # 25820 <completed.5470>
   10102:	eb95                	bnez	a5,10136 <__do_global_dtors_aux+0x38>
   10104:	ffff0797          	auipc	a5,0xffff0
   10108:	efc78793          	addi	a5,a5,-260 # 0 <register_fini-0x100b0>
   1010c:	c38d                	beqz	a5,1012e <__do_global_dtors_aux+0x30>
   1010e:	1141                	addi	sp,sp,-16
   10110:	00014517          	auipc	a0,0x14
   10114:	4f050513          	addi	a0,a0,1264 # 24600 <__FRAME_END__>
   10118:	e406                	sd	ra,8(sp)
   1011a:	00000097          	auipc	ra,0x0
   1011e:	000000e7          	jalr	zero # 0 <register_fini-0x100b0>
   10122:	60a2                	ld	ra,8(sp)
   10124:	4785                	li	a5,1
   10126:	78f18c23          	sb	a5,1944(gp) # 25820 <completed.5470>
   1012a:	0141                	addi	sp,sp,16
   1012c:	8082                	ret
   1012e:	4785                	li	a5,1
   10130:	78f18c23          	sb	a5,1944(gp) # 25820 <completed.5470>
   10134:	8082                	ret
   10136:	8082                	ret

0000000000010138 <frame_dummy>:
   10138:	ffff0797          	auipc	a5,0xffff0
   1013c:	ec878793          	addi	a5,a5,-312 # 0 <register_fini-0x100b0>
   10140:	cb99                	beqz	a5,10156 <frame_dummy+0x1e>
   10142:	7a018593          	addi	a1,gp,1952 # 25828 <object.5475>
   10146:	00014517          	auipc	a0,0x14
   1014a:	4ba50513          	addi	a0,a0,1210 # 24600 <__FRAME_END__>
   1014e:	00000317          	auipc	t1,0x0
   10152:	00000067          	jr	zero # 0 <register_fini-0x100b0>
   10156:	8082                	ret

0000000000010158 <main>:
   10158:	1101                	addi	sp,sp,-32
   1015a:	ec06                	sd	ra,24(sp)
   1015c:	e822                	sd	s0,16(sp)
   1015e:	1000                	addi	s0,sp,32
   10160:	fe042223          	sw	zero,-28(s0)
   10164:	000227b7          	lui	a5,0x22
   10168:	0d078513          	addi	a0,a5,208 # 220d0 <__clzdi2+0x32>
   1016c:	23e000ef          	jal	ra,103aa <printf>
   10170:	fe040793          	addi	a5,s0,-32
   10174:	85be                	mv	a1,a5
   10176:	000227b7          	lui	a5,0x22
   1017a:	0f078513          	addi	a0,a5,240 # 220f0 <__clzdi2+0x52>
   1017e:	25e000ef          	jal	ra,103dc <scanf>
   10182:	fe042783          	lw	a5,-32(s0)
   10186:	2785                	addiw	a5,a5,1
   10188:	0007871b          	sext.w	a4,a5
   1018c:	fe042783          	lw	a5,-32(s0)
   10190:	02f707bb          	mulw	a5,a4,a5
   10194:	2781                	sext.w	a5,a5
   10196:	01f7d71b          	srliw	a4,a5,0x1f
   1019a:	9fb9                	addw	a5,a5,a4
   1019c:	4017d79b          	sraiw	a5,a5,0x1
   101a0:	fef42223          	sw	a5,-28(s0)
   101a4:	4785                	li	a5,1
   101a6:	fef42623          	sw	a5,-20(s0)
   101aa:	a829                	j	101c4 <main+0x6c>
   101ac:	fe842703          	lw	a4,-24(s0)
   101b0:	fec42783          	lw	a5,-20(s0)
   101b4:	9fb9                	addw	a5,a5,a4
   101b6:	fef42423          	sw	a5,-24(s0)
   101ba:	fec42783          	lw	a5,-20(s0)
   101be:	2785                	addiw	a5,a5,1
   101c0:	fef42623          	sw	a5,-20(s0)
   101c4:	fe042703          	lw	a4,-32(s0)
   101c8:	fec42783          	lw	a5,-20(s0)
   101cc:	2781                	sext.w	a5,a5
   101ce:	fcf75fe3          	bge	a4,a5,101ac <main+0x54>
   101d2:	fe042783          	lw	a5,-32(s0)
   101d6:	fe842703          	lw	a4,-24(s0)
   101da:	863a                	mv	a2,a4
   101dc:	85be                	mv	a1,a5
   101de:	000227b7          	lui	a5,0x22
   101e2:	0f878513          	addi	a0,a5,248 # 220f8 <__clzdi2+0x5a>
   101e6:	1c4000ef          	jal	ra,103aa <printf>
   101ea:	fe042783          	lw	a5,-32(s0)
   101ee:	fe442703          	lw	a4,-28(s0)
   101f2:	863a                	mv	a2,a4
   101f4:	85be                	mv	a1,a5
   101f6:	000227b7          	lui	a5,0x22
   101fa:	12878513          	addi	a0,a5,296 # 22128 <__clzdi2+0x8a>
   101fe:	1ac000ef          	jal	ra,103aa <printf>
   10202:	4781                	li	a5,0
   10204:	853e                	mv	a0,a5
   10206:	60e2                	ld	ra,24(sp)
   10208:	6442                	ld	s0,16(sp)
   1020a:	6105                	addi	sp,sp,32
   1020c:	8082                	ret

000000000001020e <atexit>:
   1020e:	85aa                	mv	a1,a0
   10210:	4681                	li	a3,0
   10212:	4601                	li	a2,0
   10214:	4501                	li	a0,0
   10216:	7770306f          	j	1418c <__register_exitproc>

000000000001021a <exit>:
   1021a:	1141                	addi	sp,sp,-16
   1021c:	4581                	li	a1,0
   1021e:	e022                	sd	s0,0(sp)
   10220:	e406                	sd	ra,8(sp)
   10222:	842a                	mv	s0,a0
   10224:	7e1030ef          	jal	ra,14204 <__call_exitprocs>
   10228:	74018793          	addi	a5,gp,1856 # 257c8 <_global_impure_ptr>
   1022c:	6388                	ld	a0,0(a5)
   1022e:	6d3c                	ld	a5,88(a0)
   10230:	c391                	beqz	a5,10234 <exit+0x1a>
   10232:	9782                	jalr	a5
   10234:	8522                	mv	a0,s0
   10236:	083100ef          	jal	ra,20ab8 <_exit>

000000000001023a <__libc_fini_array>:
   1023a:	1101                	addi	sp,sp,-32
   1023c:	e822                	sd	s0,16(sp)
   1023e:	00014797          	auipc	a5,0x14
   10242:	3e278793          	addi	a5,a5,994 # 24620 <__fini_array_end>
   10246:	00014417          	auipc	s0,0x14
   1024a:	3d240413          	addi	s0,s0,978 # 24618 <__init_array_end>
   1024e:	8f81                	sub	a5,a5,s0
   10250:	e426                	sd	s1,8(sp)
   10252:	ec06                	sd	ra,24(sp)
   10254:	4037d493          	srai	s1,a5,0x3
   10258:	c881                	beqz	s1,10268 <__libc_fini_array+0x2e>
   1025a:	17e1                	addi	a5,a5,-8
   1025c:	943e                	add	s0,s0,a5
   1025e:	601c                	ld	a5,0(s0)
   10260:	14fd                	addi	s1,s1,-1
   10262:	1461                	addi	s0,s0,-8
   10264:	9782                	jalr	a5
   10266:	fce5                	bnez	s1,1025e <__libc_fini_array+0x24>
   10268:	60e2                	ld	ra,24(sp)
   1026a:	6442                	ld	s0,16(sp)
   1026c:	64a2                	ld	s1,8(sp)
   1026e:	6105                	addi	sp,sp,32
   10270:	8082                	ret

0000000000010272 <__libc_init_array>:
   10272:	1101                	addi	sp,sp,-32
   10274:	e822                	sd	s0,16(sp)
   10276:	e04a                	sd	s2,0(sp)
   10278:	00014417          	auipc	s0,0x14
   1027c:	38c40413          	addi	s0,s0,908 # 24604 <__preinit_array_end>
   10280:	00014917          	auipc	s2,0x14
   10284:	38490913          	addi	s2,s2,900 # 24604 <__preinit_array_end>
   10288:	40890933          	sub	s2,s2,s0
   1028c:	ec06                	sd	ra,24(sp)
   1028e:	e426                	sd	s1,8(sp)
   10290:	40395913          	srai	s2,s2,0x3
   10294:	00090963          	beqz	s2,102a6 <__libc_init_array+0x34>
   10298:	4481                	li	s1,0
   1029a:	601c                	ld	a5,0(s0)
   1029c:	0485                	addi	s1,s1,1
   1029e:	0421                	addi	s0,s0,8
   102a0:	9782                	jalr	a5
   102a2:	fe991ce3          	bne	s2,s1,1029a <__libc_init_array+0x28>
   102a6:	00014417          	auipc	s0,0x14
   102aa:	36240413          	addi	s0,s0,866 # 24608 <__init_array_start>
   102ae:	00014917          	auipc	s2,0x14
   102b2:	36a90913          	addi	s2,s2,874 # 24618 <__init_array_end>
   102b6:	40890933          	sub	s2,s2,s0
   102ba:	40395913          	srai	s2,s2,0x3
   102be:	00090963          	beqz	s2,102d0 <__libc_init_array+0x5e>
   102c2:	4481                	li	s1,0
   102c4:	601c                	ld	a5,0(s0)
   102c6:	0485                	addi	s1,s1,1
   102c8:	0421                	addi	s0,s0,8
   102ca:	9782                	jalr	a5
   102cc:	fe991ce3          	bne	s2,s1,102c4 <__libc_init_array+0x52>
   102d0:	60e2                	ld	ra,24(sp)
   102d2:	6442                	ld	s0,16(sp)
   102d4:	64a2                	ld	s1,8(sp)
   102d6:	6902                	ld	s2,0(sp)
   102d8:	6105                	addi	sp,sp,32
   102da:	8082                	ret

00000000000102dc <memset>:
   102dc:	433d                	li	t1,15
   102de:	872a                	mv	a4,a0
   102e0:	02c37163          	bgeu	t1,a2,10302 <memset+0x26>
   102e4:	00f77793          	andi	a5,a4,15
   102e8:	e3c1                	bnez	a5,10368 <memset+0x8c>
   102ea:	e1bd                	bnez	a1,10350 <memset+0x74>
   102ec:	ff067693          	andi	a3,a2,-16
   102f0:	8a3d                	andi	a2,a2,15
   102f2:	96ba                	add	a3,a3,a4
   102f4:	e30c                	sd	a1,0(a4)
   102f6:	e70c                	sd	a1,8(a4)
   102f8:	0741                	addi	a4,a4,16
   102fa:	fed76de3          	bltu	a4,a3,102f4 <memset+0x18>
   102fe:	e211                	bnez	a2,10302 <memset+0x26>
   10300:	8082                	ret
   10302:	40c306b3          	sub	a3,t1,a2
   10306:	068a                	slli	a3,a3,0x2
   10308:	00000297          	auipc	t0,0x0
   1030c:	9696                	add	a3,a3,t0
   1030e:	00a68067          	jr	10(a3)
   10312:	00b70723          	sb	a1,14(a4)
   10316:	00b706a3          	sb	a1,13(a4)
   1031a:	00b70623          	sb	a1,12(a4)
   1031e:	00b705a3          	sb	a1,11(a4)
   10322:	00b70523          	sb	a1,10(a4)
   10326:	00b704a3          	sb	a1,9(a4)
   1032a:	00b70423          	sb	a1,8(a4)
   1032e:	00b703a3          	sb	a1,7(a4)
   10332:	00b70323          	sb	a1,6(a4)
   10336:	00b702a3          	sb	a1,5(a4)
   1033a:	00b70223          	sb	a1,4(a4)
   1033e:	00b701a3          	sb	a1,3(a4)
   10342:	00b70123          	sb	a1,2(a4)
   10346:	00b700a3          	sb	a1,1(a4)
   1034a:	00b70023          	sb	a1,0(a4)
   1034e:	8082                	ret
   10350:	0ff5f593          	andi	a1,a1,255
   10354:	00859693          	slli	a3,a1,0x8
   10358:	8dd5                	or	a1,a1,a3
   1035a:	01059693          	slli	a3,a1,0x10
   1035e:	8dd5                	or	a1,a1,a3
   10360:	02059693          	slli	a3,a1,0x20
   10364:	8dd5                	or	a1,a1,a3
   10366:	b759                	j	102ec <memset+0x10>
   10368:	00279693          	slli	a3,a5,0x2
   1036c:	00000297          	auipc	t0,0x0
   10370:	9696                	add	a3,a3,t0
   10372:	8286                	mv	t0,ra
   10374:	fa2680e7          	jalr	-94(a3)
   10378:	8096                	mv	ra,t0
   1037a:	17c1                	addi	a5,a5,-16
   1037c:	8f1d                	sub	a4,a4,a5
   1037e:	963e                	add	a2,a2,a5
   10380:	f8c371e3          	bgeu	t1,a2,10302 <memset+0x26>
   10384:	b79d                	j	102ea <memset+0xe>

0000000000010386 <_printf_r>:
   10386:	715d                	addi	sp,sp,-80
   10388:	f032                	sd	a2,32(sp)
   1038a:	f436                	sd	a3,40(sp)
   1038c:	fc3e                	sd	a5,56(sp)
   1038e:	f83a                	sd	a4,48(sp)
   10390:	e0c2                	sd	a6,64(sp)
   10392:	e4c6                	sd	a7,72(sp)
   10394:	862e                	mv	a2,a1
   10396:	690c                	ld	a1,16(a0)
   10398:	101c                	addi	a5,sp,32
   1039a:	86be                	mv	a3,a5
   1039c:	ec06                	sd	ra,24(sp)
   1039e:	e43e                	sd	a5,8(sp)
   103a0:	092000ef          	jal	ra,10432 <_vfprintf_r>
   103a4:	60e2                	ld	ra,24(sp)
   103a6:	6161                	addi	sp,sp,80
   103a8:	8082                	ret

00000000000103aa <printf>:
   103aa:	75018313          	addi	t1,gp,1872 # 257d8 <_impure_ptr>
   103ae:	00033303          	ld	t1,0(t1) # 1014e <frame_dummy+0x16>
   103b2:	711d                	addi	sp,sp,-96
   103b4:	f832                	sd	a2,48(sp)
   103b6:	fc36                	sd	a3,56(sp)
   103b8:	e4be                	sd	a5,72(sp)
   103ba:	f42e                	sd	a1,40(sp)
   103bc:	e0ba                	sd	a4,64(sp)
   103be:	e8c2                	sd	a6,80(sp)
   103c0:	ecc6                	sd	a7,88(sp)
   103c2:	01033583          	ld	a1,16(t1)
   103c6:	103c                	addi	a5,sp,40
   103c8:	862a                	mv	a2,a0
   103ca:	86be                	mv	a3,a5
   103cc:	851a                	mv	a0,t1
   103ce:	ec06                	sd	ra,24(sp)
   103d0:	e43e                	sd	a5,8(sp)
   103d2:	060000ef          	jal	ra,10432 <_vfprintf_r>
   103d6:	60e2                	ld	ra,24(sp)
   103d8:	6125                	addi	sp,sp,96
   103da:	8082                	ret

00000000000103dc <scanf>:
   103dc:	75018313          	addi	t1,gp,1872 # 257d8 <_impure_ptr>
   103e0:	00033303          	ld	t1,0(t1)
   103e4:	711d                	addi	sp,sp,-96
   103e6:	f832                	sd	a2,48(sp)
   103e8:	fc36                	sd	a3,56(sp)
   103ea:	e4be                	sd	a5,72(sp)
   103ec:	f42e                	sd	a1,40(sp)
   103ee:	e0ba                	sd	a4,64(sp)
   103f0:	e8c2                	sd	a6,80(sp)
   103f2:	ecc6                	sd	a7,88(sp)
   103f4:	00833583          	ld	a1,8(t1)
   103f8:	103c                	addi	a5,sp,40
   103fa:	862a                	mv	a2,a0
   103fc:	86be                	mv	a3,a5
   103fe:	851a                	mv	a0,t1
   10400:	ec06                	sd	ra,24(sp)
   10402:	e43e                	sd	a5,8(sp)
   10404:	45f030ef          	jal	ra,14062 <_vfscanf_r>
   10408:	60e2                	ld	ra,24(sp)
   1040a:	6125                	addi	sp,sp,96
   1040c:	8082                	ret

000000000001040e <_scanf_r>:
   1040e:	715d                	addi	sp,sp,-80
   10410:	f032                	sd	a2,32(sp)
   10412:	f436                	sd	a3,40(sp)
   10414:	fc3e                	sd	a5,56(sp)
   10416:	f83a                	sd	a4,48(sp)
   10418:	e0c2                	sd	a6,64(sp)
   1041a:	e4c6                	sd	a7,72(sp)
   1041c:	862e                	mv	a2,a1
   1041e:	650c                	ld	a1,8(a0)
   10420:	101c                	addi	a5,sp,32
   10422:	86be                	mv	a3,a5
   10424:	ec06                	sd	ra,24(sp)
   10426:	e43e                	sd	a5,8(sp)
   10428:	43b030ef          	jal	ra,14062 <_vfscanf_r>
   1042c:	60e2                	ld	ra,24(sp)
   1042e:	6161                	addi	sp,sp,80
   10430:	8082                	ret

0000000000010432 <_vfprintf_r>:
   10432:	d8010113          	addi	sp,sp,-640
   10436:	26113c23          	sd	ra,632(sp)
   1043a:	25413823          	sd	s4,592(sp)
   1043e:	25513423          	sd	s5,584(sp)
   10442:	23a13023          	sd	s10,544(sp)
   10446:	8a2e                	mv	s4,a1
   10448:	8d32                	mv	s10,a2
   1044a:	e836                	sd	a3,16(sp)
   1044c:	26813823          	sd	s0,624(sp)
   10450:	26913423          	sd	s1,616(sp)
   10454:	27213023          	sd	s2,608(sp)
   10458:	25313c23          	sd	s3,600(sp)
   1045c:	25613023          	sd	s6,576(sp)
   10460:	23713c23          	sd	s7,568(sp)
   10464:	23813823          	sd	s8,560(sp)
   10468:	23913423          	sd	s9,552(sp)
   1046c:	21b13c23          	sd	s11,536(sp)
   10470:	8aaa                	mv	s5,a0
   10472:	165060ef          	jal	ra,16dd6 <_localeconv_r>
   10476:	611c                	ld	a5,0(a0)
   10478:	853e                	mv	a0,a5
   1047a:	e13e                	sd	a5,128(sp)
   1047c:	15f080ef          	jal	ra,18dda <strlen>
   10480:	fcaa                	sd	a0,120(sp)
   10482:	e202                	sd	zero,256(sp)
   10484:	e602                	sd	zero,264(sp)
   10486:	000a8663          	beqz	s5,10492 <_vfprintf_r+0x60>
   1048a:	050aa783          	lw	a5,80(s5)
   1048e:	1c0789e3          	beqz	a5,10e60 <_vfprintf_r+0xa2e>
   10492:	010a1683          	lh	a3,16(s4)
   10496:	03069793          	slli	a5,a3,0x30
   1049a:	93c1                	srli	a5,a5,0x30
   1049c:	03279713          	slli	a4,a5,0x32
   104a0:	00074f63          	bltz	a4,104be <_vfprintf_r+0x8c>
   104a4:	0aca2603          	lw	a2,172(s4)
   104a8:	6789                	lui	a5,0x2
   104aa:	8fd5                	or	a5,a5,a3
   104ac:	76f9                	lui	a3,0xffffe
   104ae:	16fd                	addi	a3,a3,-1
   104b0:	8ef1                	and	a3,a3,a2
   104b2:	00fa1823          	sh	a5,16(s4)
   104b6:	17c2                	slli	a5,a5,0x30
   104b8:	0ada2623          	sw	a3,172(s4)
   104bc:	93c1                	srli	a5,a5,0x30
   104be:	0087f693          	andi	a3,a5,8
   104c2:	c2fd                	beqz	a3,105a8 <_vfprintf_r+0x176>
   104c4:	018a3683          	ld	a3,24(s4)
   104c8:	c2e5                	beqz	a3,105a8 <_vfprintf_r+0x176>
   104ca:	8be9                	andi	a5,a5,26
   104cc:	46a9                	li	a3,10
   104ce:	0ed78a63          	beq	a5,a3,105c2 <_vfprintf_r+0x190>
   104d2:	000d4783          	lbu	a5,0(s10)
   104d6:	19010b13          	addi	s6,sp,400
   104da:	ea5a                	sd	s6,272(sp)
   104dc:	f202                	sd	zero,288(sp)
   104de:	10012c23          	sw	zero,280(sp)
   104e2:	f402                	sd	zero,40(sp)
   104e4:	f802                	sd	zero,48(sp)
   104e6:	e902                	sd	zero,144(sp)
   104e8:	f882                	sd	zero,112(sp)
   104ea:	e502                	sd	zero,136(sp)
   104ec:	ed02                	sd	zero,152(sp)
   104ee:	e402                	sd	zero,8(sp)
   104f0:	835a                	mv	t1,s6
   104f2:	4dc1                	li	s11,16
   104f4:	00012917          	auipc	s2,0x12
   104f8:	de490913          	addi	s2,s2,-540 # 222d8 <zeroes.4541>
   104fc:	74078d63          	beqz	a5,10c56 <_vfprintf_r+0x824>
   10500:	02500693          	li	a3,37
   10504:	00d79463          	bne	a5,a3,1050c <_vfprintf_r+0xda>
   10508:	09a0106f          	j	115a2 <_vfprintf_r+0x1170>
   1050c:	846a                	mv	s0,s10
   1050e:	a021                	j	10516 <_vfprintf_r+0xe4>
   10510:	0cd78563          	beq	a5,a3,105da <_vfprintf_r+0x1a8>
   10514:	844e                	mv	s0,s3
   10516:	00144783          	lbu	a5,1(s0)
   1051a:	00140993          	addi	s3,s0,1
   1051e:	fbed                	bnez	a5,10510 <_vfprintf_r+0xde>
   10520:	41a984bb          	subw	s1,s3,s10
   10524:	72048963          	beqz	s1,10c56 <_vfprintf_r+0x824>
   10528:	7692                	ld	a3,288(sp)
   1052a:	11812783          	lw	a5,280(sp)
   1052e:	01a33023          	sd	s10,0(t1)
   10532:	96a6                	add	a3,a3,s1
   10534:	2785                	addiw	a5,a5,1
   10536:	00933423          	sd	s1,8(t1)
   1053a:	f236                	sd	a3,288(sp)
   1053c:	10f12c23          	sw	a5,280(sp)
   10540:	0007869b          	sext.w	a3,a5
   10544:	479d                	li	a5,7
   10546:	0341                	addi	t1,t1,16
   10548:	08d7cd63          	blt	a5,a3,105e2 <_vfprintf_r+0x1b0>
   1054c:	6722                	ld	a4,8(sp)
   1054e:	00144783          	lbu	a5,1(s0)
   10552:	9f25                	addw	a4,a4,s1
   10554:	e43a                	sd	a4,8(sp)
   10556:	70078063          	beqz	a5,10c56 <_vfprintf_r+0x824>
   1055a:	00198493          	addi	s1,s3,1
   1055e:	0019cf03          	lbu	t5,1(s3)
   10562:	0c010fa3          	sb	zero,223(sp)
   10566:	5efd                	li	t4,-1
   10568:	4b81                	li	s7,0
   1056a:	4401                	li	s0,0
   1056c:	49a5                	li	s3,9
   1056e:	02a00c13          	li	s8,42
   10572:	0485                	addi	s1,s1,1
   10574:	000f0c9b          	sext.w	s9,t5
   10578:	05a00613          	li	a2,90
   1057c:	fe0c879b          	addiw	a5,s9,-32
   10580:	0007869b          	sext.w	a3,a5
   10584:	18d66763          	bltu	a2,a3,10712 <_vfprintf_r+0x2e0>
   10588:	1782                	slli	a5,a5,0x20
   1058a:	00012717          	auipc	a4,0x12
   1058e:	bce70713          	addi	a4,a4,-1074 # 22158 <__clzdi2+0xba>
   10592:	83f9                	srli	a5,a5,0x1e
   10594:	97ba                	add	a5,a5,a4
   10596:	439c                	lw	a5,0(a5)
   10598:	97ba                	add	a5,a5,a4
   1059a:	8782                	jr	a5
   1059c:	01046413          	ori	s0,s0,16
   105a0:	2401                	sext.w	s0,s0
   105a2:	0004cf03          	lbu	t5,0(s1)
   105a6:	b7f1                	j	10572 <_vfprintf_r+0x140>
   105a8:	85d2                	mv	a1,s4
   105aa:	8556                	mv	a0,s5
   105ac:	2ed030ef          	jal	ra,14098 <__swsetup_r>
   105b0:	c119                	beqz	a0,105b6 <_vfprintf_r+0x184>
   105b2:	7cc0106f          	j	11d7e <_vfprintf_r+0x194c>
   105b6:	010a5783          	lhu	a5,16(s4)
   105ba:	46a9                	li	a3,10
   105bc:	8be9                	andi	a5,a5,26
   105be:	f0d79ae3          	bne	a5,a3,104d2 <_vfprintf_r+0xa0>
   105c2:	012a1783          	lh	a5,18(s4)
   105c6:	f007c6e3          	bltz	a5,104d2 <_vfprintf_r+0xa0>
   105ca:	66c2                	ld	a3,16(sp)
   105cc:	866a                	mv	a2,s10
   105ce:	85d2                	mv	a1,s4
   105d0:	8556                	mv	a0,s5
   105d2:	26f010ef          	jal	ra,12040 <__sbprintf>
   105d6:	e42a                	sd	a0,8(sp)
   105d8:	a089                	j	1061a <_vfprintf_r+0x1e8>
   105da:	41a984bb          	subw	s1,s3,s10
   105de:	dcb5                	beqz	s1,1055a <_vfprintf_r+0x128>
   105e0:	b7a1                	j	10528 <_vfprintf_r+0xf6>
   105e2:	0a10                	addi	a2,sp,272
   105e4:	85d2                	mv	a1,s4
   105e6:	8556                	mv	a0,s5
   105e8:	68b0b0ef          	jal	ra,1c472 <__sprint_r>
   105ec:	e105                	bnez	a0,1060c <_vfprintf_r+0x1da>
   105ee:	835a                	mv	t1,s6
   105f0:	bfb1                	j	1054c <_vfprintf_r+0x11a>
   105f2:	0a10                	addi	a2,sp,272
   105f4:	85d2                	mv	a1,s4
   105f6:	8556                	mv	a0,s5
   105f8:	67b0b0ef          	jal	ra,1c472 <__sprint_r>
   105fc:	62050f63          	beqz	a0,10c3a <_vfprintf_r+0x808>
   10600:	7782                	ld	a5,32(sp)
   10602:	c789                	beqz	a5,1060c <_vfprintf_r+0x1da>
   10604:	85be                	mv	a1,a5
   10606:	8556                	mv	a0,s5
   10608:	3b2040ef          	jal	ra,149ba <_free_r>
   1060c:	010a5783          	lhu	a5,16(s4)
   10610:	0407f793          	andi	a5,a5,64
   10614:	c399                	beqz	a5,1061a <_vfprintf_r+0x1e8>
   10616:	7680106f          	j	11d7e <_vfprintf_r+0x194c>
   1061a:	27813083          	ld	ra,632(sp)
   1061e:	27013403          	ld	s0,624(sp)
   10622:	6522                	ld	a0,8(sp)
   10624:	26813483          	ld	s1,616(sp)
   10628:	26013903          	ld	s2,608(sp)
   1062c:	25813983          	ld	s3,600(sp)
   10630:	25013a03          	ld	s4,592(sp)
   10634:	24813a83          	ld	s5,584(sp)
   10638:	24013b03          	ld	s6,576(sp)
   1063c:	23813b83          	ld	s7,568(sp)
   10640:	23013c03          	ld	s8,560(sp)
   10644:	22813c83          	ld	s9,552(sp)
   10648:	22013d03          	ld	s10,544(sp)
   1064c:	21813d83          	ld	s11,536(sp)
   10650:	28010113          	addi	sp,sp,640
   10654:	8082                	ret
   10656:	66c2                	ld	a3,16(sp)
   10658:	00012797          	auipc	a5,0x12
   1065c:	ce878793          	addi	a5,a5,-792 # 22340 <zeroes.4541+0x68>
   10660:	f83e                	sd	a5,48(sp)
   10662:	02047793          	andi	a5,s0,32
   10666:	00868713          	addi	a4,a3,8 # ffffffffffffe008 <__BSS_END__+0xfffffffffffd8780>
   1066a:	cbf1                	beqz	a5,1073e <_vfprintf_r+0x30c>
   1066c:	0006b983          	ld	s3,0(a3)
   10670:	00147793          	andi	a5,s0,1
   10674:	cf81                	beqz	a5,1068c <_vfprintf_r+0x25a>
   10676:	00098b63          	beqz	s3,1068c <_vfprintf_r+0x25a>
   1067a:	00246413          	ori	s0,s0,2
   1067e:	03000793          	li	a5,48
   10682:	0ef10023          	sb	a5,224(sp)
   10686:	0f9100a3          	sb	s9,225(sp)
   1068a:	2401                	sext.w	s0,s0
   1068c:	bff47693          	andi	a3,s0,-1025
   10690:	2681                	sext.w	a3,a3
   10692:	e83a                	sd	a4,16(sp)
   10694:	4789                	li	a5,2
   10696:	0c010fa3          	sb	zero,223(sp)
   1069a:	577d                	li	a4,-1
   1069c:	46ee8063          	beq	t4,a4,10afc <_vfprintf_r+0x6ca>
   106a0:	f7f6f413          	andi	s0,a3,-129
   106a4:	2401                	sext.w	s0,s0
   106a6:	2c099be3          	bnez	s3,1117c <_vfprintf_r+0xd4a>
   106aa:	400e98e3          	bnez	t4,112ba <_vfprintf_r+0xe88>
   106ae:	3c079163          	bnez	a5,10a70 <_vfprintf_r+0x63e>
   106b2:	0016fc13          	andi	s8,a3,1
   106b6:	18c10d13          	addi	s10,sp,396
   106ba:	5c0c12e3          	bnez	s8,1147e <_vfprintf_r+0x104c>
   106be:	000c099b          	sext.w	s3,s8
   106c2:	01dc5463          	bge	s8,t4,106ca <_vfprintf_r+0x298>
   106c6:	000e899b          	sext.w	s3,t4
   106ca:	0df14783          	lbu	a5,223(sp)
   106ce:	f002                	sd	zero,32(sp)
   106d0:	ec82                	sd	zero,88(sp)
   106d2:	f482                	sd	zero,104(sp)
   106d4:	f082                	sd	zero,96(sp)
   106d6:	48078b63          	beqz	a5,10b6c <_vfprintf_r+0x73a>
   106da:	2985                	addiw	s3,s3,1
   106dc:	a941                	j	10b6c <_vfprintf_r+0x73a>
   106de:	4b81                	li	s7,0
   106e0:	0485                	addi	s1,s1,1
   106e2:	fff4c683          	lbu	a3,-1(s1)
   106e6:	002b979b          	slliw	a5,s7,0x2
   106ea:	01778bbb          	addw	s7,a5,s7
   106ee:	fd0c8f1b          	addiw	t5,s9,-48
   106f2:	001b9b9b          	slliw	s7,s7,0x1
   106f6:	fd06879b          	addiw	a5,a3,-48
   106fa:	017f0bbb          	addw	s7,t5,s7
   106fe:	00068c9b          	sext.w	s9,a3
   10702:	fcf9ffe3          	bgeu	s3,a5,106e0 <_vfprintf_r+0x2ae>
   10706:	fe0c879b          	addiw	a5,s9,-32
   1070a:	0007869b          	sext.w	a3,a5
   1070e:	e6d67de3          	bgeu	a2,a3,10588 <_vfprintf_r+0x156>
   10712:	540c8263          	beqz	s9,10c56 <_vfprintf_r+0x824>
   10716:	13910423          	sb	s9,296(sp)
   1071a:	0c010fa3          	sb	zero,223(sp)
   1071e:	4985                	li	s3,1
   10720:	4c05                	li	s8,1
   10722:	12810d13          	addi	s10,sp,296
   10726:	a935                	j	10b62 <_vfprintf_r+0x730>
   10728:	66c2                	ld	a3,16(sp)
   1072a:	00012797          	auipc	a5,0x12
   1072e:	c2e78793          	addi	a5,a5,-978 # 22358 <zeroes.4541+0x80>
   10732:	f83e                	sd	a5,48(sp)
   10734:	02047793          	andi	a5,s0,32
   10738:	00868713          	addi	a4,a3,8
   1073c:	fb85                	bnez	a5,1066c <_vfprintf_r+0x23a>
   1073e:	01047793          	andi	a5,s0,16
   10742:	560799e3          	bnez	a5,114b4 <_vfprintf_r+0x1082>
   10746:	66c2                	ld	a3,16(sp)
   10748:	04047793          	andi	a5,s0,64
   1074c:	0006a983          	lw	s3,0(a3)
   10750:	e399                	bnez	a5,10756 <_vfprintf_r+0x324>
   10752:	78f0006f          	j	116e0 <_vfprintf_r+0x12ae>
   10756:	19c2                	slli	s3,s3,0x30
   10758:	0309d993          	srli	s3,s3,0x30
   1075c:	bf11                	j	10670 <_vfprintf_r+0x23e>
   1075e:	0004cf03          	lbu	t5,0(s1)
   10762:	00446413          	ori	s0,s0,4
   10766:	2401                	sext.w	s0,s0
   10768:	b529                	j	10572 <_vfprintf_r+0x140>
   1076a:	0004cf03          	lbu	t5,0(s1)
   1076e:	06800793          	li	a5,104
   10772:	58ff0de3          	beq	t5,a5,1150c <_vfprintf_r+0x10da>
   10776:	04046413          	ori	s0,s0,64
   1077a:	2401                	sext.w	s0,s0
   1077c:	bbdd                	j	10572 <_vfprintf_r+0x140>
   1077e:	00847793          	andi	a5,s0,8
   10782:	50079be3          	bnez	a5,11498 <_vfprintf_r+0x1066>
   10786:	67c2                	ld	a5,16(sp)
   10788:	f01a                	sd	t1,32(sp)
   1078a:	ec76                	sd	t4,24(sp)
   1078c:	2388                	fld	fa0,0(a5)
   1078e:	07a1                	addi	a5,a5,8
   10790:	e83e                	sd	a5,16(sp)
   10792:	620110ef          	jal	ra,21db2 <__extenddftf2>
   10796:	7302                	ld	t1,32(sp)
   10798:	6ee2                	ld	t4,24(sp)
   1079a:	e22a                	sd	a0,256(sp)
   1079c:	e62e                	sd	a1,264(sp)
   1079e:	0208                	addi	a0,sp,256
   107a0:	f01a                	sd	t1,32(sp)
   107a2:	ec76                	sd	t4,24(sp)
   107a4:	5f6060ef          	jal	ra,16d9a <_ldcheck>
   107a8:	d5aa                	sw	a0,232(sp)
   107aa:	4789                	li	a5,2
   107ac:	6ee2                	ld	t4,24(sp)
   107ae:	7302                	ld	t1,32(sp)
   107b0:	6af50ae3          	beq	a0,a5,11664 <_vfprintf_r+0x1232>
   107b4:	4785                	li	a5,1
   107b6:	76f50de3          	beq	a0,a5,11730 <_vfprintf_r+0x12fe>
   107ba:	06100793          	li	a5,97
   107be:	00fc9463          	bne	s9,a5,107c6 <_vfprintf_r+0x394>
   107c2:	65a0106f          	j	11e1c <_vfprintf_r+0x19ea>
   107c6:	04100793          	li	a5,65
   107ca:	00fc9463          	bne	s9,a5,107d2 <_vfprintf_r+0x3a0>
   107ce:	1f80106f          	j	119c6 <_vfprintf_r+0x1594>
   107d2:	fdfcf713          	andi	a4,s9,-33
   107d6:	57fd                	li	a5,-1
   107d8:	f53a                	sd	a4,168(sp)
   107da:	00fe9463          	bne	t4,a5,107e2 <_vfprintf_r+0x3b0>
   107de:	6e00106f          	j	11ebe <_vfprintf_r+0x1a8c>
   107e2:	04700793          	li	a5,71
   107e6:	00f71463          	bne	a4,a5,107ee <_vfprintf_r+0x3bc>
   107ea:	6be0106f          	j	11ea8 <_vfprintf_r+0x1a76>
   107ee:	6c32                	ld	s8,264(sp)
   107f0:	10046793          	ori	a5,s0,256
   107f4:	f922                	sd	s0,176(sp)
   107f6:	2781                	sext.w	a5,a5
   107f8:	6f92                	ld	t6,256(sp)
   107fa:	000c5463          	bgez	s8,10802 <_vfprintf_r+0x3d0>
   107fe:	4840106f          	j	11c82 <_vfprintf_r+0x1850>
   10802:	e582                	sd	zero,200(sp)
   10804:	843e                	mv	s0,a5
   10806:	f002                	sd	zero,32(sp)
   10808:	772a                	ld	a4,168(sp)
   1080a:	04600793          	li	a5,70
   1080e:	00f71463          	bne	a4,a5,10816 <_vfprintf_r+0x3e4>
   10812:	38a0106f          	j	11b9c <_vfprintf_r+0x176a>
   10816:	04500793          	li	a5,69
   1081a:	fc1a                	sd	t1,56(sp)
   1081c:	00f71463          	bne	a4,a5,10824 <_vfprintf_r+0x3f2>
   10820:	65c0106f          	j	11e7c <_vfprintf_r+0x1a4a>
   10824:	8776                	mv	a4,t4
   10826:	11bc                	addi	a5,sp,232
   10828:	85fe                	mv	a1,t6
   1082a:	0f810893          	addi	a7,sp,248
   1082e:	0ec10813          	addi	a6,sp,236
   10832:	4689                	li	a3,2
   10834:	8662                	mv	a2,s8
   10836:	8556                	mv	a0,s5
   10838:	f476                	sd	t4,40(sp)
   1083a:	ec7e                	sd	t6,24(sp)
   1083c:	696050ef          	jal	ra,15ed2 <_ldtoa_r>
   10840:	772a                	ld	a4,168(sp)
   10842:	04700793          	li	a5,71
   10846:	8d2a                	mv	s10,a0
   10848:	6fe2                	ld	t6,24(sp)
   1084a:	7ea2                	ld	t4,40(sp)
   1084c:	7362                	ld	t1,56(sp)
   1084e:	00f70463          	beq	a4,a5,10856 <_vfprintf_r+0x424>
   10852:	7d00106f          	j	12022 <_vfprintf_r+0x1bf0>
   10856:	77ca                	ld	a5,176(sp)
   10858:	01d509b3          	add	s3,a0,t4
   1085c:	8b85                	andi	a5,a5,1
   1085e:	c399                	beqz	a5,10864 <_vfprintf_r+0x432>
   10860:	3960106f          	j	11bf6 <_vfprintf_r+0x17c4>
   10864:	77ee                	ld	a5,248(sp)
   10866:	572e                	lw	a4,232(sp)
   10868:	41a787bb          	subw	a5,a5,s10
   1086c:	f43e                	sd	a5,40(sp)
   1086e:	f0ba                	sd	a4,96(sp)
   10870:	772a                	ld	a4,168(sp)
   10872:	04700793          	li	a5,71
   10876:	00f71463          	bne	a4,a5,1087e <_vfprintf_r+0x44c>
   1087a:	30a0106f          	j	11b84 <_vfprintf_r+0x1752>
   1087e:	772a                	ld	a4,168(sp)
   10880:	04600793          	li	a5,70
   10884:	00f71463          	bne	a4,a5,1088c <_vfprintf_r+0x45a>
   10888:	4740106f          	j	11cfc <_vfprintf_r+0x18ca>
   1088c:	7786                	ld	a5,96(sp)
   1088e:	772a                	ld	a4,168(sp)
   10890:	04100593          	li	a1,65
   10894:	37fd                	addiw	a5,a5,-1
   10896:	d5be                	sw	a5,232(sp)
   10898:	0ffcf693          	andi	a3,s9,255
   1089c:	4601                	li	a2,0
   1089e:	00b71663          	bne	a4,a1,108aa <_vfprintf_r+0x478>
   108a2:	26bd                	addiw	a3,a3,15
   108a4:	0ff6f693          	andi	a3,a3,255
   108a8:	4605                	li	a2,1
   108aa:	0ed10823          	sb	a3,240(sp)
   108ae:	02b00693          	li	a3,43
   108b2:	0007d763          	bgez	a5,108c0 <_vfprintf_r+0x48e>
   108b6:	7706                	ld	a4,96(sp)
   108b8:	4785                	li	a5,1
   108ba:	02d00693          	li	a3,45
   108be:	9f99                	subw	a5,a5,a4
   108c0:	0ed108a3          	sb	a3,241(sp)
   108c4:	46a5                	li	a3,9
   108c6:	00f6c463          	blt	a3,a5,108ce <_vfprintf_r+0x49c>
   108ca:	6c00106f          	j	11f8a <_vfprintf_r+0x1b58>
   108ce:	0ff10513          	addi	a0,sp,255
   108d2:	85aa                	mv	a1,a0
   108d4:	4829                	li	a6,10
   108d6:	06300893          	li	a7,99
   108da:	a019                	j	108e0 <_vfprintf_r+0x4ae>
   108dc:	85b2                	mv	a1,a2
   108de:	87b6                	mv	a5,a3
   108e0:	0307e6bb          	remw	a3,a5,a6
   108e4:	fff58613          	addi	a2,a1,-1
   108e8:	0306869b          	addiw	a3,a3,48
   108ec:	fed58fa3          	sb	a3,-1(a1)
   108f0:	0307c6bb          	divw	a3,a5,a6
   108f4:	fef8c4e3          	blt	a7,a5,108dc <_vfprintf_r+0x4aa>
   108f8:	0306879b          	addiw	a5,a3,48
   108fc:	0ff7f793          	andi	a5,a5,255
   10900:	ffe58693          	addi	a3,a1,-2
   10904:	fef60fa3          	sb	a5,-1(a2)
   10908:	00a6e463          	bltu	a3,a0,10910 <_vfprintf_r+0x4de>
   1090c:	71c0106f          	j	12028 <_vfprintf_r+0x1bf6>
   10910:	0f210613          	addi	a2,sp,242
   10914:	a019                	j	1091a <_vfprintf_r+0x4e8>
   10916:	0006c783          	lbu	a5,0(a3)
   1091a:	0605                	addi	a2,a2,1
   1091c:	0685                	addi	a3,a3,1
   1091e:	fef60fa3          	sb	a5,-1(a2)
   10922:	fea69ae3          	bne	a3,a0,10916 <_vfprintf_r+0x4e4>
   10926:	10110793          	addi	a5,sp,257
   1092a:	8f8d                	sub	a5,a5,a1
   1092c:	0f210713          	addi	a4,sp,242
   10930:	97ba                	add	a5,a5,a4
   10932:	1994                	addi	a3,sp,240
   10934:	9f95                	subw	a5,a5,a3
   10936:	e93e                	sd	a5,144(sp)
   10938:	67ca                	ld	a5,144(sp)
   1093a:	7722                	ld	a4,40(sp)
   1093c:	4685                	li	a3,1
   1093e:	00f70c3b          	addw	s8,a4,a5
   10942:	87e2                	mv	a5,s8
   10944:	00e6c463          	blt	a3,a4,1094c <_vfprintf_r+0x51a>
   10948:	66c0106f          	j	11fb4 <_vfprintf_r+0x1b82>
   1094c:	7766                	ld	a4,120(sp)
   1094e:	00e78c3b          	addw	s8,a5,a4
   10952:	77ca                	ld	a5,176(sp)
   10954:	fffc4993          	not	s3,s8
   10958:	43f9d993          	srai	s3,s3,0x3f
   1095c:	bff7f413          	andi	s0,a5,-1025
   10960:	2401                	sext.w	s0,s0
   10962:	013c79b3          	and	s3,s8,s3
   10966:	10046413          	ori	s0,s0,256
   1096a:	2981                	sext.w	s3,s3
   1096c:	ec82                	sd	zero,88(sp)
   1096e:	f482                	sd	zero,104(sp)
   10970:	f082                	sd	zero,96(sp)
   10972:	67ae                	ld	a5,200(sp)
   10974:	e399                	bnez	a5,1097a <_vfprintf_r+0x548>
   10976:	2fc0106f          	j	11c72 <_vfprintf_r+0x1840>
   1097a:	02d00793          	li	a5,45
   1097e:	0cf10fa3          	sb	a5,223(sp)
   10982:	4e81                	li	t4,0
   10984:	2985                	addiw	s3,s3,1
   10986:	a2dd                	j	10b6c <_vfprintf_r+0x73a>
   10988:	67c2                	ld	a5,16(sp)
   1098a:	01046693          	ori	a3,s0,16
   1098e:	2681                	sext.w	a3,a3
   10990:	00878713          	addi	a4,a5,8
   10994:	67c2                	ld	a5,16(sp)
   10996:	0007b983          	ld	s3,0(a5)
   1099a:	4785                	li	a5,1
   1099c:	e83a                	sd	a4,16(sp)
   1099e:	b9e5                	j	10696 <_vfprintf_r+0x264>
   109a0:	67c2                	ld	a5,16(sp)
   109a2:	0c010fa3          	sb	zero,223(sp)
   109a6:	0007bd03          	ld	s10,0(a5)
   109aa:	00878693          	addi	a3,a5,8
   109ae:	380d09e3          	beqz	s10,11540 <_vfprintf_r+0x110e>
   109b2:	57fd                	li	a5,-1
   109b4:	4efe8be3          	beq	t4,a5,116aa <_vfprintf_r+0x1278>
   109b8:	8676                	mv	a2,t4
   109ba:	4581                	li	a1,0
   109bc:	856a                	mv	a0,s10
   109be:	fc36                	sd	a3,56(sp)
   109c0:	ec1a                	sd	t1,24(sp)
   109c2:	e876                	sd	t4,16(sp)
   109c4:	535060ef          	jal	ra,176f8 <memchr>
   109c8:	f02a                	sd	a0,32(sp)
   109ca:	6ec2                	ld	t4,16(sp)
   109cc:	6362                	ld	t1,24(sp)
   109ce:	76e2                	ld	a3,56(sp)
   109d0:	e119                	bnez	a0,109d6 <_vfprintf_r+0x5a4>
   109d2:	30e0106f          	j	11ce0 <_vfprintf_r+0x18ae>
   109d6:	7782                	ld	a5,32(sp)
   109d8:	e836                	sd	a3,16(sp)
   109da:	f002                	sd	zero,32(sp)
   109dc:	41a78c3b          	subw	s8,a5,s10
   109e0:	fffc4993          	not	s3,s8
   109e4:	0df14783          	lbu	a5,223(sp)
   109e8:	43f9d993          	srai	s3,s3,0x3f
   109ec:	013c79b3          	and	s3,s8,s3
   109f0:	ec82                	sd	zero,88(sp)
   109f2:	f482                	sd	zero,104(sp)
   109f4:	f082                	sd	zero,96(sp)
   109f6:	2981                	sext.w	s3,s3
   109f8:	4e81                	li	t4,0
   109fa:	ce0790e3          	bnez	a5,106da <_vfprintf_r+0x2a8>
   109fe:	a2bd                	j	10b6c <_vfprintf_r+0x73a>
   10a00:	6742                	ld	a4,16(sp)
   10a02:	01046693          	ori	a3,s0,16
   10a06:	0006841b          	sext.w	s0,a3
   10a0a:	0721                	addi	a4,a4,8
   10a0c:	67c2                	ld	a5,16(sp)
   10a0e:	0007b983          	ld	s3,0(a5)
   10a12:	e83a                	sd	a4,16(sp)
   10a14:	bff47693          	andi	a3,s0,-1025
   10a18:	2681                	sext.w	a3,a3
   10a1a:	4781                	li	a5,0
   10a1c:	b9ad                	j	10696 <_vfprintf_r+0x264>
   10a1e:	00846413          	ori	s0,s0,8
   10a22:	2401                	sext.w	s0,s0
   10a24:	0004cf03          	lbu	t5,0(s1)
   10a28:	b6a9                	j	10572 <_vfprintf_r+0x140>
   10a2a:	6742                	ld	a4,16(sp)
   10a2c:	02047793          	andi	a5,s0,32
   10a30:	0721                	addi	a4,a4,8
   10a32:	26079ee3          	bnez	a5,114ae <_vfprintf_r+0x107c>
   10a36:	01047793          	andi	a5,s0,16
   10a3a:	26079ae3          	bnez	a5,114ae <_vfprintf_r+0x107c>
   10a3e:	04047793          	andi	a5,s0,64
   10a42:	4c078be3          	beqz	a5,11718 <_vfprintf_r+0x12e6>
   10a46:	67c2                	ld	a5,16(sp)
   10a48:	86a2                	mv	a3,s0
   10a4a:	e83a                	sd	a4,16(sp)
   10a4c:	00079983          	lh	s3,0(a5)
   10a50:	87ce                	mv	a5,s3
   10a52:	0807cb63          	bltz	a5,10ae8 <_vfprintf_r+0x6b6>
   10a56:	57fd                	li	a5,-1
   10a58:	40fe8a63          	beq	t4,a5,10e6c <_vfprintf_r+0xa3a>
   10a5c:	f7f6f693          	andi	a3,a3,-129
   10a60:	0006841b          	sext.w	s0,a3
   10a64:	40099363          	bnez	s3,10e6a <_vfprintf_r+0xa38>
   10a68:	000e8463          	beqz	t4,10a70 <_vfprintf_r+0x63e>
   10a6c:	1020106f          	j	11b6e <_vfprintf_r+0x173c>
   10a70:	4e81                	li	t4,0
   10a72:	4c01                	li	s8,0
   10a74:	18c10d13          	addi	s10,sp,396
   10a78:	b199                	j	106be <_vfprintf_r+0x28c>
   10a7a:	02b00793          	li	a5,43
   10a7e:	0cf10fa3          	sb	a5,223(sp)
   10a82:	0004cf03          	lbu	t5,0(s1)
   10a86:	b4f5                	j	10572 <_vfprintf_r+0x140>
   10a88:	08046413          	ori	s0,s0,128
   10a8c:	2401                	sext.w	s0,s0
   10a8e:	0004cf03          	lbu	t5,0(s1)
   10a92:	b4c5                	j	10572 <_vfprintf_r+0x140>
   10a94:	0004cc83          	lbu	s9,0(s1)
   10a98:	00148793          	addi	a5,s1,1
   10a9c:	018c9463          	bne	s9,s8,10aa4 <_vfprintf_r+0x672>
   10aa0:	5580106f          	j	11ff8 <_vfprintf_r+0x1bc6>
   10aa4:	fd0c869b          	addiw	a3,s9,-48
   10aa8:	84be                	mv	s1,a5
   10aaa:	4e81                	li	t4,0
   10aac:	acd9e8e3          	bltu	s3,a3,1057c <_vfprintf_r+0x14a>
   10ab0:	0485                	addi	s1,s1,1
   10ab2:	002e979b          	slliw	a5,t4,0x2
   10ab6:	fff4cc83          	lbu	s9,-1(s1)
   10aba:	01d78ebb          	addw	t4,a5,t4
   10abe:	001e9e9b          	slliw	t4,t4,0x1
   10ac2:	00de8ebb          	addw	t4,t4,a3
   10ac6:	fd0c869b          	addiw	a3,s9,-48
   10aca:	fed9f3e3          	bgeu	s3,a3,10ab0 <_vfprintf_r+0x67e>
   10ace:	b47d                	j	1057c <_vfprintf_r+0x14a>
   10ad0:	67c2                	ld	a5,16(sp)
   10ad2:	01046693          	ori	a3,s0,16
   10ad6:	2681                	sext.w	a3,a3
   10ad8:	00878713          	addi	a4,a5,8
   10adc:	67c2                	ld	a5,16(sp)
   10ade:	639c                	ld	a5,0(a5)
   10ae0:	e83a                	sd	a4,16(sp)
   10ae2:	89be                	mv	s3,a5
   10ae4:	f607d9e3          	bgez	a5,10a56 <_vfprintf_r+0x624>
   10ae8:	02d00793          	li	a5,45
   10aec:	0cf10fa3          	sb	a5,223(sp)
   10af0:	577d                	li	a4,-1
   10af2:	413009b3          	neg	s3,s3
   10af6:	4785                	li	a5,1
   10af8:	baee94e3          	bne	t4,a4,106a0 <_vfprintf_r+0x26e>
   10afc:	4705                	li	a4,1
   10afe:	36e78763          	beq	a5,a4,10e6c <_vfprintf_r+0xa3a>
   10b02:	4709                	li	a4,2
   10b04:	7ce78263          	beq	a5,a4,112c8 <_vfprintf_r+0xe96>
   10b08:	18c10c13          	addi	s8,sp,396
   10b0c:	8662                	mv	a2,s8
   10b0e:	a011                	j	10b12 <_vfprintf_r+0x6e0>
   10b10:	866a                	mv	a2,s10
   10b12:	0079f793          	andi	a5,s3,7
   10b16:	03078793          	addi	a5,a5,48
   10b1a:	fef60fa3          	sb	a5,-1(a2)
   10b1e:	0039d993          	srli	s3,s3,0x3
   10b22:	fff60d13          	addi	s10,a2,-1
   10b26:	fe0995e3          	bnez	s3,10b10 <_vfprintf_r+0x6de>
   10b2a:	0016f593          	andi	a1,a3,1
   10b2e:	3a058263          	beqz	a1,10ed2 <_vfprintf_r+0xaa0>
   10b32:	03000593          	li	a1,48
   10b36:	38b78e63          	beq	a5,a1,10ed2 <_vfprintf_r+0xaa0>
   10b3a:	1679                	addi	a2,a2,-2
   10b3c:	febd0fa3          	sb	a1,-1(s10)
   10b40:	40cc0c3b          	subw	s8,s8,a2
   10b44:	8436                	mv	s0,a3
   10b46:	8d32                	mv	s10,a2
   10b48:	be9d                	j	106be <_vfprintf_r+0x28c>
   10b4a:	6742                	ld	a4,16(sp)
   10b4c:	0c010fa3          	sb	zero,223(sp)
   10b50:	4985                	li	s3,1
   10b52:	431c                	lw	a5,0(a4)
   10b54:	0721                	addi	a4,a4,8
   10b56:	e83a                	sd	a4,16(sp)
   10b58:	12f10423          	sb	a5,296(sp)
   10b5c:	4c05                	li	s8,1
   10b5e:	12810d13          	addi	s10,sp,296
   10b62:	f002                	sd	zero,32(sp)
   10b64:	4e81                	li	t4,0
   10b66:	ec82                	sd	zero,88(sp)
   10b68:	f482                	sd	zero,104(sp)
   10b6a:	f082                	sd	zero,96(sp)
   10b6c:	00247893          	andi	a7,s0,2
   10b70:	2881                	sext.w	a7,a7
   10b72:	00088363          	beqz	a7,10b78 <_vfprintf_r+0x746>
   10b76:	2989                	addiw	s3,s3,2
   10b78:	08447293          	andi	t0,s0,132
   10b7c:	7792                	ld	a5,288(sp)
   10b7e:	00029663          	bnez	t0,10b8a <_vfprintf_r+0x758>
   10b82:	413b883b          	subw	a6,s7,s3
   10b86:	5f004d63          	bgtz	a6,11180 <_vfprintf_r+0xd4e>
   10b8a:	0df14683          	lbu	a3,223(sp)
   10b8e:	c68d                	beqz	a3,10bb8 <_vfprintf_r+0x786>
   10b90:	11812683          	lw	a3,280(sp)
   10b94:	0df10613          	addi	a2,sp,223
   10b98:	00c33023          	sd	a2,0(t1)
   10b9c:	2685                	addiw	a3,a3,1
   10b9e:	4605                	li	a2,1
   10ba0:	0785                	addi	a5,a5,1
   10ba2:	00c33423          	sd	a2,8(t1)
   10ba6:	10d12c23          	sw	a3,280(sp)
   10baa:	0006861b          	sext.w	a2,a3
   10bae:	f23e                	sd	a5,288(sp)
   10bb0:	469d                	li	a3,7
   10bb2:	0341                	addi	t1,t1,16
   10bb4:	0ac6ca63          	blt	a3,a2,10c68 <_vfprintf_r+0x836>
   10bb8:	02088563          	beqz	a7,10be2 <_vfprintf_r+0x7b0>
   10bbc:	11812683          	lw	a3,280(sp)
   10bc0:	1190                	addi	a2,sp,224
   10bc2:	00c33023          	sd	a2,0(t1)
   10bc6:	2685                	addiw	a3,a3,1
   10bc8:	4609                	li	a2,2
   10bca:	0789                	addi	a5,a5,2
   10bcc:	00c33423          	sd	a2,8(t1)
   10bd0:	10d12c23          	sw	a3,280(sp)
   10bd4:	0006861b          	sext.w	a2,a3
   10bd8:	f23e                	sd	a5,288(sp)
   10bda:	469d                	li	a3,7
   10bdc:	0341                	addi	t1,t1,16
   10bde:	64c6c163          	blt	a3,a2,11220 <_vfprintf_r+0xdee>
   10be2:	08000693          	li	a3,128
   10be6:	3cd28463          	beq	t0,a3,10fae <_vfprintf_r+0xb7c>
   10bea:	418e8ebb          	subw	t4,t4,s8
   10bee:	45d04663          	bgtz	t4,1103a <_vfprintf_r+0xc08>
   10bf2:	10047693          	andi	a3,s0,256
   10bf6:	2e069363          	bnez	a3,10edc <_vfprintf_r+0xaaa>
   10bfa:	11812703          	lw	a4,280(sp)
   10bfe:	97e2                	add	a5,a5,s8
   10c00:	01a33023          	sd	s10,0(t1)
   10c04:	0017069b          	addiw	a3,a4,1
   10c08:	8736                	mv	a4,a3
   10c0a:	01833423          	sd	s8,8(t1)
   10c0e:	10e12c23          	sw	a4,280(sp)
   10c12:	f23e                	sd	a5,288(sp)
   10c14:	471d                	li	a4,7
   10c16:	0cd74963          	blt	a4,a3,10ce8 <_vfprintf_r+0x8b6>
   10c1a:	0341                	addi	t1,t1,16
   10c1c:	8811                	andi	s0,s0,4
   10c1e:	c409                	beqz	s0,10c28 <_vfprintf_r+0x7f6>
   10c20:	413b843b          	subw	s0,s7,s3
   10c24:	60804c63          	bgtz	s0,1123c <_vfprintf_r+0xe0a>
   10c28:	875e                	mv	a4,s7
   10c2a:	013bd363          	bge	s7,s3,10c30 <_vfprintf_r+0x7fe>
   10c2e:	874e                	mv	a4,s3
   10c30:	66a2                	ld	a3,8(sp)
   10c32:	9f35                	addw	a4,a4,a3
   10c34:	e43a                	sd	a4,8(sp)
   10c36:	9a079ee3          	bnez	a5,105f2 <_vfprintf_r+0x1c0>
   10c3a:	7782                	ld	a5,32(sp)
   10c3c:	10012c23          	sw	zero,280(sp)
   10c40:	c789                	beqz	a5,10c4a <_vfprintf_r+0x818>
   10c42:	7582                	ld	a1,32(sp)
   10c44:	8556                	mv	a0,s5
   10c46:	575030ef          	jal	ra,149ba <_free_r>
   10c4a:	835a                	mv	t1,s6
   10c4c:	8d26                	mv	s10,s1
   10c4e:	000d4783          	lbu	a5,0(s10)
   10c52:	8a0797e3          	bnez	a5,10500 <_vfprintf_r+0xce>
   10c56:	7792                	ld	a5,288(sp)
   10c58:	9a078ae3          	beqz	a5,1060c <_vfprintf_r+0x1da>
   10c5c:	0a10                	addi	a2,sp,272
   10c5e:	85d2                	mv	a1,s4
   10c60:	8556                	mv	a0,s5
   10c62:	0110b0ef          	jal	ra,1c472 <__sprint_r>
   10c66:	b25d                	j	1060c <_vfprintf_r+0x1da>
   10c68:	0a10                	addi	a2,sp,272
   10c6a:	85d2                	mv	a1,s4
   10c6c:	8556                	mv	a0,s5
   10c6e:	e0f6                	sd	t4,64(sp)
   10c70:	fc16                	sd	t0,56(sp)
   10c72:	ec46                	sd	a7,24(sp)
   10c74:	7fe0b0ef          	jal	ra,1c472 <__sprint_r>
   10c78:	980514e3          	bnez	a0,10600 <_vfprintf_r+0x1ce>
   10c7c:	7792                	ld	a5,288(sp)
   10c7e:	835a                	mv	t1,s6
   10c80:	6e86                	ld	t4,64(sp)
   10c82:	72e2                	ld	t0,56(sp)
   10c84:	68e2                	ld	a7,24(sp)
   10c86:	bf0d                	j	10bb8 <_vfprintf_r+0x786>
   10c88:	11812603          	lw	a2,280(sp)
   10c8c:	7766                	ld	a4,120(sp)
   10c8e:	668a                	ld	a3,128(sp)
   10c90:	0341                	addi	t1,t1,16
   10c92:	97ba                	add	a5,a5,a4
   10c94:	fed33823          	sd	a3,-16(t1)
   10c98:	0016069b          	addiw	a3,a2,1
   10c9c:	fee33c23          	sd	a4,-8(t1)
   10ca0:	f23e                	sd	a5,288(sp)
   10ca2:	10d12c23          	sw	a3,280(sp)
   10ca6:	461d                	li	a2,7
   10ca8:	00d65e63          	bge	a2,a3,10cc4 <_vfprintf_r+0x892>
   10cac:	0a10                	addi	a2,sp,272
   10cae:	85d2                	mv	a1,s4
   10cb0:	8556                	mv	a0,s5
   10cb2:	7c00b0ef          	jal	ra,1c472 <__sprint_r>
   10cb6:	940515e3          	bnez	a0,10600 <_vfprintf_r+0x1ce>
   10cba:	55ae                	lw	a1,232(sp)
   10cbc:	7792                	ld	a5,288(sp)
   10cbe:	11812683          	lw	a3,280(sp)
   10cc2:	835a                	mv	t1,s6
   10cc4:	0005d463          	bgez	a1,10ccc <_vfprintf_r+0x89a>
   10cc8:	0be0106f          	j	11d86 <_vfprintf_r+0x1954>
   10ccc:	7722                	ld	a4,40(sp)
   10cce:	0016861b          	addiw	a2,a3,1
   10cd2:	01a33023          	sd	s10,0(t1)
   10cd6:	97ba                	add	a5,a5,a4
   10cd8:	00e33423          	sd	a4,8(t1)
   10cdc:	f23e                	sd	a5,288(sp)
   10cde:	10c12c23          	sw	a2,280(sp)
   10ce2:	471d                	li	a4,7
   10ce4:	f2c75be3          	bge	a4,a2,10c1a <_vfprintf_r+0x7e8>
   10ce8:	0a10                	addi	a2,sp,272
   10cea:	85d2                	mv	a1,s4
   10cec:	8556                	mv	a0,s5
   10cee:	7840b0ef          	jal	ra,1c472 <__sprint_r>
   10cf2:	900517e3          	bnez	a0,10600 <_vfprintf_r+0x1ce>
   10cf6:	7792                	ld	a5,288(sp)
   10cf8:	835a                	mv	t1,s6
   10cfa:	b70d                	j	10c1c <_vfprintf_r+0x7ea>
   10cfc:	67c2                	ld	a5,16(sp)
   10cfe:	0004cf03          	lbu	t5,0(s1)
   10d02:	0007ab83          	lw	s7,0(a5)
   10d06:	07a1                	addi	a5,a5,8
   10d08:	e83e                	sd	a5,16(sp)
   10d0a:	860bd4e3          	bgez	s7,10572 <_vfprintf_r+0x140>
   10d0e:	41700bbb          	negw	s7,s7
   10d12:	bc81                	j	10762 <_vfprintf_r+0x330>
   10d14:	8556                	mv	a0,s5
   10d16:	f01a                	sd	t1,32(sp)
   10d18:	ec76                	sd	t4,24(sp)
   10d1a:	0bc060ef          	jal	ra,16dd6 <_localeconv_r>
   10d1e:	651c                	ld	a5,8(a0)
   10d20:	853e                	mv	a0,a5
   10d22:	ed3e                	sd	a5,152(sp)
   10d24:	0b6080ef          	jal	ra,18dda <strlen>
   10d28:	e52a                	sd	a0,136(sp)
   10d2a:	8caa                	mv	s9,a0
   10d2c:	8556                	mv	a0,s5
   10d2e:	0a8060ef          	jal	ra,16dd6 <_localeconv_r>
   10d32:	6918                	ld	a4,16(a0)
   10d34:	6ee2                	ld	t4,24(sp)
   10d36:	7302                	ld	t1,32(sp)
   10d38:	f8ba                	sd	a4,112(sp)
   10d3a:	0004cf03          	lbu	t5,0(s1)
   10d3e:	820c8ae3          	beqz	s9,10572 <_vfprintf_r+0x140>
   10d42:	820708e3          	beqz	a4,10572 <_vfprintf_r+0x140>
   10d46:	00074783          	lbu	a5,0(a4)
   10d4a:	820784e3          	beqz	a5,10572 <_vfprintf_r+0x140>
   10d4e:	40046413          	ori	s0,s0,1024
   10d52:	2401                	sext.w	s0,s0
   10d54:	81fff06f          	j	10572 <_vfprintf_r+0x140>
   10d58:	00146413          	ori	s0,s0,1
   10d5c:	2401                	sext.w	s0,s0
   10d5e:	0004cf03          	lbu	t5,0(s1)
   10d62:	811ff06f          	j	10572 <_vfprintf_r+0x140>
   10d66:	0df14783          	lbu	a5,223(sp)
   10d6a:	0004cf03          	lbu	t5,0(s1)
   10d6e:	800792e3          	bnez	a5,10572 <_vfprintf_r+0x140>
   10d72:	02000793          	li	a5,32
   10d76:	0cf10fa3          	sb	a5,223(sp)
   10d7a:	ff8ff06f          	j	10572 <_vfprintf_r+0x140>
   10d7e:	6742                	ld	a4,16(sp)
   10d80:	02047793          	andi	a5,s0,32
   10d84:	0721                	addi	a4,a4,8
   10d86:	72079c63          	bnez	a5,114be <_vfprintf_r+0x108c>
   10d8a:	01047793          	andi	a5,s0,16
   10d8e:	72079863          	bnez	a5,114be <_vfprintf_r+0x108c>
   10d92:	66c2                	ld	a3,16(sp)
   10d94:	04047793          	andi	a5,s0,64
   10d98:	0006a983          	lw	s3,0(a3)
   10d9c:	14078ae3          	beqz	a5,116f0 <_vfprintf_r+0x12be>
   10da0:	19c2                	slli	s3,s3,0x30
   10da2:	0309d993          	srli	s3,s3,0x30
   10da6:	e83a                	sd	a4,16(sp)
   10da8:	86a2                	mv	a3,s0
   10daa:	4785                	li	a5,1
   10dac:	b0ed                	j	10696 <_vfprintf_r+0x264>
   10dae:	02046413          	ori	s0,s0,32
   10db2:	2401                	sext.w	s0,s0
   10db4:	0004cf03          	lbu	t5,0(s1)
   10db8:	fbaff06f          	j	10572 <_vfprintf_r+0x140>
   10dbc:	6742                	ld	a4,16(sp)
   10dbe:	77e1                	lui	a5,0xffff8
   10dc0:	8307c793          	xori	a5,a5,-2000
   10dc4:	0ef11023          	sh	a5,224(sp)
   10dc8:	00870793          	addi	a5,a4,8
   10dcc:	00246693          	ori	a3,s0,2
   10dd0:	e83e                	sd	a5,16(sp)
   10dd2:	00011797          	auipc	a5,0x11
   10dd6:	56e78793          	addi	a5,a5,1390 # 22340 <zeroes.4541+0x68>
   10dda:	f83e                	sd	a5,48(sp)
   10ddc:	00073983          	ld	s3,0(a4)
   10de0:	2681                	sext.w	a3,a3
   10de2:	4789                	li	a5,2
   10de4:	07800c93          	li	s9,120
   10de8:	b07d                	j	10696 <_vfprintf_r+0x264>
   10dea:	6742                	ld	a4,16(sp)
   10dec:	02047793          	andi	a5,s0,32
   10df0:	0721                	addi	a4,a4,8
   10df2:	c0079de3          	bnez	a5,10a0c <_vfprintf_r+0x5da>
   10df6:	01047793          	andi	a5,s0,16
   10dfa:	c00799e3          	bnez	a5,10a0c <_vfprintf_r+0x5da>
   10dfe:	66c2                	ld	a3,16(sp)
   10e00:	04047793          	andi	a5,s0,64
   10e04:	0006a983          	lw	s3,0(a3)
   10e08:	0e078fe3          	beqz	a5,11706 <_vfprintf_r+0x12d4>
   10e0c:	19c2                	slli	s3,s3,0x30
   10e0e:	0309d993          	srli	s3,s3,0x30
   10e12:	e83a                	sd	a4,16(sp)
   10e14:	b101                	j	10a14 <_vfprintf_r+0x5e2>
   10e16:	66c2                	ld	a3,16(sp)
   10e18:	02047793          	andi	a5,s0,32
   10e1c:	6298                	ld	a4,0(a3)
   10e1e:	06a1                	addi	a3,a3,8
   10e20:	e836                	sd	a3,16(sp)
   10e22:	66079663          	bnez	a5,1148e <_vfprintf_r+0x105c>
   10e26:	01047793          	andi	a5,s0,16
   10e2a:	66079263          	bnez	a5,1148e <_vfprintf_r+0x105c>
   10e2e:	04047793          	andi	a5,s0,64
   10e32:	34079ce3          	bnez	a5,1198a <_vfprintf_r+0x1558>
   10e36:	20047413          	andi	s0,s0,512
   10e3a:	67a2                	ld	a5,8(sp)
   10e3c:	e019                	bnez	s0,10e42 <_vfprintf_r+0xa10>
   10e3e:	0780106f          	j	11eb6 <_vfprintf_r+0x1a84>
   10e42:	00f70023          	sb	a5,0(a4)
   10e46:	8d26                	mv	s10,s1
   10e48:	b519                	j	10c4e <_vfprintf_r+0x81c>
   10e4a:	0004cf03          	lbu	t5,0(s1)
   10e4e:	06c00793          	li	a5,108
   10e52:	6cff0f63          	beq	t5,a5,11530 <_vfprintf_r+0x10fe>
   10e56:	01046413          	ori	s0,s0,16
   10e5a:	2401                	sext.w	s0,s0
   10e5c:	f16ff06f          	j	10572 <_vfprintf_r+0x140>
   10e60:	8556                	mv	a0,s5
   10e62:	09f030ef          	jal	ra,14700 <__sinit>
   10e66:	e2cff06f          	j	10492 <_vfprintf_r+0x60>
   10e6a:	86a2                	mv	a3,s0
   10e6c:	47a5                	li	a5,9
   10e6e:	0137eb63          	bltu	a5,s3,10e84 <_vfprintf_r+0xa52>
   10e72:	0309899b          	addiw	s3,s3,48
   10e76:	193105a3          	sb	s3,395(sp)
   10e7a:	8436                	mv	s0,a3
   10e7c:	4c05                	li	s8,1
   10e7e:	18b10d13          	addi	s10,sp,395
   10e82:	b835                	j	106be <_vfprintf_r+0x28c>
   10e84:	4006f793          	andi	a5,a3,1024
   10e88:	18c10c13          	addi	s8,sp,396
   10e8c:	2781                	sext.w	a5,a5
   10e8e:	f402                	sd	zero,40(sp)
   10e90:	85e2                	mv	a1,s8
   10e92:	4429                	li	s0,10
   10e94:	4825                	li	a6,9
   10e96:	0ff00893          	li	a7,255
   10e9a:	a039                	j	10ea8 <_vfprintf_r+0xa76>
   10e9c:	0289d633          	divu	a2,s3,s0
   10ea0:	03387963          	bgeu	a6,s3,10ed2 <_vfprintf_r+0xaa0>
   10ea4:	89b2                	mv	s3,a2
   10ea6:	85ea                	mv	a1,s10
   10ea8:	7722                	ld	a4,40(sp)
   10eaa:	fff58d13          	addi	s10,a1,-1
   10eae:	2705                	addiw	a4,a4,1
   10eb0:	f43a                	sd	a4,40(sp)
   10eb2:	0289f633          	remu	a2,s3,s0
   10eb6:	0306061b          	addiw	a2,a2,48
   10eba:	fec58fa3          	sb	a2,-1(a1)
   10ebe:	dff9                	beqz	a5,10e9c <_vfprintf_r+0xa6a>
   10ec0:	7646                	ld	a2,112(sp)
   10ec2:	00064603          	lbu	a2,0(a2)
   10ec6:	fcc71be3          	bne	a4,a2,10e9c <_vfprintf_r+0xa6a>
   10eca:	fd1609e3          	beq	a2,a7,10e9c <_vfprintf_r+0xa6a>
   10ece:	25386ae3          	bltu	a6,s3,11922 <_vfprintf_r+0x14f0>
   10ed2:	41ac0c3b          	subw	s8,s8,s10
   10ed6:	8436                	mv	s0,a3
   10ed8:	fe6ff06f          	j	106be <_vfprintf_r+0x28c>
   10edc:	06500693          	li	a3,101
   10ee0:	1d96db63          	bge	a3,s9,110b6 <_vfprintf_r+0xc84>
   10ee4:	6512                	ld	a0,256(sp)
   10ee6:	65b2                	ld	a1,264(sp)
   10ee8:	4601                	li	a2,0
   10eea:	4681                	li	a3,0
   10eec:	fc3e                	sd	a5,56(sp)
   10eee:	ec1a                	sd	t1,24(sp)
   10ef0:	5bd0f0ef          	jal	ra,20cac <__eqtf2>
   10ef4:	6362                	ld	t1,24(sp)
   10ef6:	77e2                	ld	a5,56(sp)
   10ef8:	3e051d63          	bnez	a0,112f2 <_vfprintf_r+0xec0>
   10efc:	11812703          	lw	a4,280(sp)
   10f00:	00011697          	auipc	a3,0x11
   10f04:	47868693          	addi	a3,a3,1144 # 22378 <zeroes.4541+0xa0>
   10f08:	0785                	addi	a5,a5,1
   10f0a:	2705                	addiw	a4,a4,1
   10f0c:	00d33023          	sd	a3,0(t1)
   10f10:	4685                	li	a3,1
   10f12:	00d33423          	sd	a3,8(t1)
   10f16:	f23e                	sd	a5,288(sp)
   10f18:	0007069b          	sext.w	a3,a4
   10f1c:	10e12c23          	sw	a4,280(sp)
   10f20:	479d                	li	a5,7
   10f22:	0341                	addi	t1,t1,16
   10f24:	70d7ce63          	blt	a5,a3,11640 <_vfprintf_r+0x120e>
   10f28:	57ae                	lw	a5,232(sp)
   10f2a:	7722                	ld	a4,40(sp)
   10f2c:	00e7c763          	blt	a5,a4,10f3a <_vfprintf_r+0xb08>
   10f30:	00147793          	andi	a5,s0,1
   10f34:	e399                	bnez	a5,10f3a <_vfprintf_r+0xb08>
   10f36:	7792                	ld	a5,288(sp)
   10f38:	b1d5                	j	10c1c <_vfprintf_r+0x7ea>
   10f3a:	678a                	ld	a5,128(sp)
   10f3c:	76e6                	ld	a3,120(sp)
   10f3e:	11812703          	lw	a4,280(sp)
   10f42:	00f33023          	sd	a5,0(t1)
   10f46:	7792                	ld	a5,288(sp)
   10f48:	2705                	addiw	a4,a4,1
   10f4a:	00d33423          	sd	a3,8(t1)
   10f4e:	97b6                	add	a5,a5,a3
   10f50:	10e12c23          	sw	a4,280(sp)
   10f54:	0007069b          	sext.w	a3,a4
   10f58:	f23e                	sd	a5,288(sp)
   10f5a:	471d                	li	a4,7
   10f5c:	0341                	addi	t1,t1,16
   10f5e:	5ad74f63          	blt	a4,a3,1151c <_vfprintf_r+0x10ea>
   10f62:	7722                	ld	a4,40(sp)
   10f64:	fff70c1b          	addiw	s8,a4,-1
   10f68:	cb805ae3          	blez	s8,10c1c <_vfprintf_r+0x7ea>
   10f6c:	11812703          	lw	a4,280(sp)
   10f70:	6f8dd263          	bge	s11,s8,11654 <_vfprintf_r+0x1222>
   10f74:	4c9d                	li	s9,7
   10f76:	a021                	j	10f7e <_vfprintf_r+0xb4c>
   10f78:	3c41                	addiw	s8,s8,-16
   10f7a:	6d8ddd63          	bge	s11,s8,11654 <_vfprintf_r+0x1222>
   10f7e:	2705                	addiw	a4,a4,1
   10f80:	07c1                	addi	a5,a5,16
   10f82:	01233023          	sd	s2,0(t1)
   10f86:	01b33423          	sd	s11,8(t1)
   10f8a:	f23e                	sd	a5,288(sp)
   10f8c:	10e12c23          	sw	a4,280(sp)
   10f90:	0341                	addi	t1,t1,16
   10f92:	feecd3e3          	bge	s9,a4,10f78 <_vfprintf_r+0xb46>
   10f96:	0a10                	addi	a2,sp,272
   10f98:	85d2                	mv	a1,s4
   10f9a:	8556                	mv	a0,s5
   10f9c:	4d60b0ef          	jal	ra,1c472 <__sprint_r>
   10fa0:	e6051063          	bnez	a0,10600 <_vfprintf_r+0x1ce>
   10fa4:	7792                	ld	a5,288(sp)
   10fa6:	11812703          	lw	a4,280(sp)
   10faa:	835a                	mv	t1,s6
   10fac:	b7f1                	j	10f78 <_vfprintf_r+0xb46>
   10fae:	413b883b          	subw	a6,s7,s3
   10fb2:	c3005ce3          	blez	a6,10bea <_vfprintf_r+0x7b8>
   10fb6:	11812683          	lw	a3,280(sp)
   10fba:	050dd663          	bge	s11,a6,11006 <_vfprintf_r+0xbd4>
   10fbe:	489d                	li	a7,7
   10fc0:	a021                	j	10fc8 <_vfprintf_r+0xb96>
   10fc2:	3841                	addiw	a6,a6,-16
   10fc4:	050dd163          	bge	s11,a6,11006 <_vfprintf_r+0xbd4>
   10fc8:	2685                	addiw	a3,a3,1
   10fca:	07c1                	addi	a5,a5,16
   10fcc:	01233023          	sd	s2,0(t1)
   10fd0:	01b33423          	sd	s11,8(t1)
   10fd4:	f23e                	sd	a5,288(sp)
   10fd6:	10d12c23          	sw	a3,280(sp)
   10fda:	0341                	addi	t1,t1,16
   10fdc:	fed8d3e3          	bge	a7,a3,10fc2 <_vfprintf_r+0xb90>
   10fe0:	0a10                	addi	a2,sp,272
   10fe2:	85d2                	mv	a1,s4
   10fe4:	8556                	mv	a0,s5
   10fe6:	fc42                	sd	a6,56(sp)
   10fe8:	ec76                	sd	t4,24(sp)
   10fea:	4880b0ef          	jal	ra,1c472 <__sprint_r>
   10fee:	e0051963          	bnez	a0,10600 <_vfprintf_r+0x1ce>
   10ff2:	7862                	ld	a6,56(sp)
   10ff4:	7792                	ld	a5,288(sp)
   10ff6:	11812683          	lw	a3,280(sp)
   10ffa:	3841                	addiw	a6,a6,-16
   10ffc:	835a                	mv	t1,s6
   10ffe:	489d                	li	a7,7
   11000:	6ee2                	ld	t4,24(sp)
   11002:	fd0dc3e3          	blt	s11,a6,10fc8 <_vfprintf_r+0xb96>
   11006:	0016861b          	addiw	a2,a3,1
   1100a:	97c2                	add	a5,a5,a6
   1100c:	01233023          	sd	s2,0(t1)
   11010:	01033423          	sd	a6,8(t1)
   11014:	f23e                	sd	a5,288(sp)
   11016:	10c12c23          	sw	a2,280(sp)
   1101a:	469d                	li	a3,7
   1101c:	0341                	addi	t1,t1,16
   1101e:	bcc6d6e3          	bge	a3,a2,10bea <_vfprintf_r+0x7b8>
   11022:	0a10                	addi	a2,sp,272
   11024:	85d2                	mv	a1,s4
   11026:	8556                	mv	a0,s5
   11028:	ec76                	sd	t4,24(sp)
   1102a:	4480b0ef          	jal	ra,1c472 <__sprint_r>
   1102e:	dc051963          	bnez	a0,10600 <_vfprintf_r+0x1ce>
   11032:	7792                	ld	a5,288(sp)
   11034:	835a                	mv	t1,s6
   11036:	6ee2                	ld	t4,24(sp)
   11038:	be4d                	j	10bea <_vfprintf_r+0x7b8>
   1103a:	11812683          	lw	a3,280(sp)
   1103e:	05ddd463          	bge	s11,t4,11086 <_vfprintf_r+0xc54>
   11042:	481d                	li	a6,7
   11044:	a021                	j	1104c <_vfprintf_r+0xc1a>
   11046:	3ec1                	addiw	t4,t4,-16
   11048:	03dddf63          	bge	s11,t4,11086 <_vfprintf_r+0xc54>
   1104c:	2685                	addiw	a3,a3,1
   1104e:	07c1                	addi	a5,a5,16
   11050:	01233023          	sd	s2,0(t1)
   11054:	01b33423          	sd	s11,8(t1)
   11058:	f23e                	sd	a5,288(sp)
   1105a:	10d12c23          	sw	a3,280(sp)
   1105e:	0341                	addi	t1,t1,16
   11060:	fed853e3          	bge	a6,a3,11046 <_vfprintf_r+0xc14>
   11064:	0a10                	addi	a2,sp,272
   11066:	85d2                	mv	a1,s4
   11068:	8556                	mv	a0,s5
   1106a:	ec76                	sd	t4,24(sp)
   1106c:	4060b0ef          	jal	ra,1c472 <__sprint_r>
   11070:	d8051863          	bnez	a0,10600 <_vfprintf_r+0x1ce>
   11074:	6ee2                	ld	t4,24(sp)
   11076:	7792                	ld	a5,288(sp)
   11078:	11812683          	lw	a3,280(sp)
   1107c:	3ec1                	addiw	t4,t4,-16
   1107e:	835a                	mv	t1,s6
   11080:	481d                	li	a6,7
   11082:	fdddc5e3          	blt	s11,t4,1104c <_vfprintf_r+0xc1a>
   11086:	0016861b          	addiw	a2,a3,1
   1108a:	97f6                	add	a5,a5,t4
   1108c:	01233023          	sd	s2,0(t1)
   11090:	01d33423          	sd	t4,8(t1)
   11094:	f23e                	sd	a5,288(sp)
   11096:	10c12c23          	sw	a2,280(sp)
   1109a:	469d                	li	a3,7
   1109c:	0341                	addi	t1,t1,16
   1109e:	b4c6dae3          	bge	a3,a2,10bf2 <_vfprintf_r+0x7c0>
   110a2:	0a10                	addi	a2,sp,272
   110a4:	85d2                	mv	a1,s4
   110a6:	8556                	mv	a0,s5
   110a8:	3ca0b0ef          	jal	ra,1c472 <__sprint_r>
   110ac:	d4051a63          	bnez	a0,10600 <_vfprintf_r+0x1ce>
   110b0:	7792                	ld	a5,288(sp)
   110b2:	835a                	mv	t1,s6
   110b4:	be3d                	j	10bf2 <_vfprintf_r+0x7c0>
   110b6:	11812f03          	lw	t5,280(sp)
   110ba:	7722                	ld	a4,40(sp)
   110bc:	4585                	li	a1,1
   110be:	001f069b          	addiw	a3,t5,1
   110c2:	01a33023          	sd	s10,0(t1)
   110c6:	0785                	addi	a5,a5,1
   110c8:	8636                	mv	a2,a3
   110ca:	01030c13          	addi	s8,t1,16
   110ce:	34e5d163          	bge	a1,a4,11410 <_vfprintf_r+0xfde>
   110d2:	4585                	li	a1,1
   110d4:	10c12c23          	sw	a2,280(sp)
   110d8:	00b33423          	sd	a1,8(t1)
   110dc:	f23e                	sd	a5,288(sp)
   110de:	461d                	li	a2,7
   110e0:	4cd64463          	blt	a2,a3,115a8 <_vfprintf_r+0x1176>
   110e4:	7766                	ld	a4,120(sp)
   110e6:	660a                	ld	a2,128(sp)
   110e8:	0016881b          	addiw	a6,a3,1
   110ec:	97ba                	add	a5,a5,a4
   110ee:	00cc3023          	sd	a2,0(s8)
   110f2:	00ec3423          	sd	a4,8(s8)
   110f6:	f23e                	sd	a5,288(sp)
   110f8:	11012c23          	sw	a6,280(sp)
   110fc:	469d                	li	a3,7
   110fe:	0c41                	addi	s8,s8,16
   11100:	4d06c163          	blt	a3,a6,115c2 <_vfprintf_r+0x1190>
   11104:	e4be                	sd	a5,72(sp)
   11106:	77a2                	ld	a5,40(sp)
   11108:	6512                	ld	a0,256(sp)
   1110a:	65b2                	ld	a1,264(sp)
   1110c:	00180e9b          	addiw	t4,a6,1
   11110:	fff7889b          	addiw	a7,a5,-1
   11114:	010c0313          	addi	t1,s8,16
   11118:	4601                	li	a2,0
   1111a:	4681                	li	a3,0
   1111c:	000e8c9b          	sext.w	s9,t4
   11120:	e0f6                	sd	t4,64(sp)
   11122:	fc1a                	sd	t1,56(sp)
   11124:	ec46                	sd	a7,24(sp)
   11126:	e8c2                	sd	a6,80(sp)
   11128:	3850f0ef          	jal	ra,20cac <__eqtf2>
   1112c:	68e2                	ld	a7,24(sp)
   1112e:	7362                	ld	t1,56(sp)
   11130:	6e86                	ld	t4,64(sp)
   11132:	67a6                	ld	a5,72(sp)
   11134:	2e050f63          	beqz	a0,11432 <_vfprintf_r+0x1000>
   11138:	001d0713          	addi	a4,s10,1
   1113c:	97c6                	add	a5,a5,a7
   1113e:	00ec3023          	sd	a4,0(s8)
   11142:	011c3423          	sd	a7,8(s8)
   11146:	f23e                	sd	a5,288(sp)
   11148:	11d12c23          	sw	t4,280(sp)
   1114c:	471d                	li	a4,7
   1114e:	39974f63          	blt	a4,s9,114ec <_vfprintf_r+0x10ba>
   11152:	6846                	ld	a6,80(sp)
   11154:	020c0713          	addi	a4,s8,32
   11158:	8c1a                	mv	s8,t1
   1115a:	00280c9b          	addiw	s9,a6,2
   1115e:	833a                	mv	t1,a4
   11160:	66ca                	ld	a3,144(sp)
   11162:	1998                	addi	a4,sp,240
   11164:	00ec3023          	sd	a4,0(s8)
   11168:	97b6                	add	a5,a5,a3
   1116a:	00dc3423          	sd	a3,8(s8)
   1116e:	f23e                	sd	a5,288(sp)
   11170:	11912c23          	sw	s9,280(sp)
   11174:	471d                	li	a4,7
   11176:	ab9753e3          	bge	a4,s9,10c1c <_vfprintf_r+0x7ea>
   1117a:	b6bd                	j	10ce8 <_vfprintf_r+0x8b6>
   1117c:	86a2                	mv	a3,s0
   1117e:	babd                	j	10afc <_vfprintf_r+0x6ca>
   11180:	11812683          	lw	a3,280(sp)
   11184:	00011f97          	auipc	t6,0x11
   11188:	144f8f93          	addi	t6,t6,324 # 222c8 <blanks.4540>
   1118c:	439d                	li	t2,7
   1118e:	010dc663          	blt	s11,a6,1119a <_vfprintf_r+0xd68>
   11192:	a889                	j	111e4 <_vfprintf_r+0xdb2>
   11194:	3841                	addiw	a6,a6,-16
   11196:	050dd763          	bge	s11,a6,111e4 <_vfprintf_r+0xdb2>
   1119a:	2685                	addiw	a3,a3,1
   1119c:	07c1                	addi	a5,a5,16
   1119e:	01f33023          	sd	t6,0(t1)
   111a2:	01b33423          	sd	s11,8(t1)
   111a6:	f23e                	sd	a5,288(sp)
   111a8:	10d12c23          	sw	a3,280(sp)
   111ac:	0341                	addi	t1,t1,16
   111ae:	fed3d3e3          	bge	t2,a3,11194 <_vfprintf_r+0xd62>
   111b2:	0a10                	addi	a2,sp,272
   111b4:	85d2                	mv	a1,s4
   111b6:	8556                	mv	a0,s5
   111b8:	e8fe                	sd	t6,80(sp)
   111ba:	e4c2                	sd	a6,72(sp)
   111bc:	e0f6                	sd	t4,64(sp)
   111be:	fc16                	sd	t0,56(sp)
   111c0:	ec46                	sd	a7,24(sp)
   111c2:	2b00b0ef          	jal	ra,1c472 <__sprint_r>
   111c6:	c2051d63          	bnez	a0,10600 <_vfprintf_r+0x1ce>
   111ca:	6826                	ld	a6,72(sp)
   111cc:	7792                	ld	a5,288(sp)
   111ce:	11812683          	lw	a3,280(sp)
   111d2:	3841                	addiw	a6,a6,-16
   111d4:	835a                	mv	t1,s6
   111d6:	6fc6                	ld	t6,80(sp)
   111d8:	439d                	li	t2,7
   111da:	6e86                	ld	t4,64(sp)
   111dc:	72e2                	ld	t0,56(sp)
   111de:	68e2                	ld	a7,24(sp)
   111e0:	fb0dcde3          	blt	s11,a6,1119a <_vfprintf_r+0xd68>
   111e4:	0016861b          	addiw	a2,a3,1
   111e8:	97c2                	add	a5,a5,a6
   111ea:	01f33023          	sd	t6,0(t1)
   111ee:	01033423          	sd	a6,8(t1)
   111f2:	f23e                	sd	a5,288(sp)
   111f4:	10c12c23          	sw	a2,280(sp)
   111f8:	469d                	li	a3,7
   111fa:	0341                	addi	t1,t1,16
   111fc:	98c6d7e3          	bge	a3,a2,10b8a <_vfprintf_r+0x758>
   11200:	0a10                	addi	a2,sp,272
   11202:	85d2                	mv	a1,s4
   11204:	8556                	mv	a0,s5
   11206:	e0f6                	sd	t4,64(sp)
   11208:	fc16                	sd	t0,56(sp)
   1120a:	ec46                	sd	a7,24(sp)
   1120c:	2660b0ef          	jal	ra,1c472 <__sprint_r>
   11210:	be051863          	bnez	a0,10600 <_vfprintf_r+0x1ce>
   11214:	7792                	ld	a5,288(sp)
   11216:	835a                	mv	t1,s6
   11218:	6e86                	ld	t4,64(sp)
   1121a:	72e2                	ld	t0,56(sp)
   1121c:	68e2                	ld	a7,24(sp)
   1121e:	b2b5                	j	10b8a <_vfprintf_r+0x758>
   11220:	0a10                	addi	a2,sp,272
   11222:	85d2                	mv	a1,s4
   11224:	8556                	mv	a0,s5
   11226:	fc76                	sd	t4,56(sp)
   11228:	ec16                	sd	t0,24(sp)
   1122a:	2480b0ef          	jal	ra,1c472 <__sprint_r>
   1122e:	bc051963          	bnez	a0,10600 <_vfprintf_r+0x1ce>
   11232:	7792                	ld	a5,288(sp)
   11234:	835a                	mv	t1,s6
   11236:	7ee2                	ld	t4,56(sp)
   11238:	62e2                	ld	t0,24(sp)
   1123a:	b265                	j	10be2 <_vfprintf_r+0x7b0>
   1123c:	11812703          	lw	a4,280(sp)
   11240:	00011f97          	auipc	t6,0x11
   11244:	088f8f93          	addi	t6,t6,136 # 222c8 <blanks.4540>
   11248:	4c1d                	li	s8,7
   1124a:	008dc663          	blt	s11,s0,11256 <_vfprintf_r+0xe24>
   1124e:	a081                	j	1128e <_vfprintf_r+0xe5c>
   11250:	3441                	addiw	s0,s0,-16
   11252:	028dde63          	bge	s11,s0,1128e <_vfprintf_r+0xe5c>
   11256:	2705                	addiw	a4,a4,1
   11258:	07c1                	addi	a5,a5,16
   1125a:	01f33023          	sd	t6,0(t1)
   1125e:	01b33423          	sd	s11,8(t1)
   11262:	f23e                	sd	a5,288(sp)
   11264:	10e12c23          	sw	a4,280(sp)
   11268:	0341                	addi	t1,t1,16
   1126a:	feec53e3          	bge	s8,a4,11250 <_vfprintf_r+0xe1e>
   1126e:	0a10                	addi	a2,sp,272
   11270:	85d2                	mv	a1,s4
   11272:	8556                	mv	a0,s5
   11274:	ec7e                	sd	t6,24(sp)
   11276:	1fc0b0ef          	jal	ra,1c472 <__sprint_r>
   1127a:	b8051363          	bnez	a0,10600 <_vfprintf_r+0x1ce>
   1127e:	3441                	addiw	s0,s0,-16
   11280:	7792                	ld	a5,288(sp)
   11282:	11812703          	lw	a4,280(sp)
   11286:	835a                	mv	t1,s6
   11288:	6fe2                	ld	t6,24(sp)
   1128a:	fc8dc6e3          	blt	s11,s0,11256 <_vfprintf_r+0xe24>
   1128e:	0017069b          	addiw	a3,a4,1
   11292:	97a2                	add	a5,a5,s0
   11294:	01f33023          	sd	t6,0(t1)
   11298:	00833423          	sd	s0,8(t1)
   1129c:	f23e                	sd	a5,288(sp)
   1129e:	10d12c23          	sw	a3,280(sp)
   112a2:	471d                	li	a4,7
   112a4:	98d752e3          	bge	a4,a3,10c28 <_vfprintf_r+0x7f6>
   112a8:	0a10                	addi	a2,sp,272
   112aa:	85d2                	mv	a1,s4
   112ac:	8556                	mv	a0,s5
   112ae:	1c40b0ef          	jal	ra,1c472 <__sprint_r>
   112b2:	b4051763          	bnez	a0,10600 <_vfprintf_r+0x1ce>
   112b6:	7792                	ld	a5,288(sp)
   112b8:	ba85                	j	10c28 <_vfprintf_r+0x7f6>
   112ba:	4705                	li	a4,1
   112bc:	0ae789e3          	beq	a5,a4,11b6e <_vfprintf_r+0x173c>
   112c0:	4709                	li	a4,2
   112c2:	86a2                	mv	a3,s0
   112c4:	84e792e3          	bne	a5,a4,10b08 <_vfprintf_r+0x6d6>
   112c8:	18c10c13          	addi	s8,sp,396
   112cc:	8d62                	mv	s10,s8
   112ce:	7742                	ld	a4,48(sp)
   112d0:	00f9f793          	andi	a5,s3,15
   112d4:	1d7d                	addi	s10,s10,-1
   112d6:	97ba                	add	a5,a5,a4
   112d8:	0007c783          	lbu	a5,0(a5)
   112dc:	0049d993          	srli	s3,s3,0x4
   112e0:	00fd0023          	sb	a5,0(s10)
   112e4:	fe0995e3          	bnez	s3,112ce <_vfprintf_r+0xe9c>
   112e8:	41ac0c3b          	subw	s8,s8,s10
   112ec:	8436                	mv	s0,a3
   112ee:	bd0ff06f          	j	106be <_vfprintf_r+0x28c>
   112f2:	55ae                	lw	a1,232(sp)
   112f4:	2eb05463          	blez	a1,115dc <_vfprintf_r+0x11aa>
   112f8:	7722                	ld	a4,40(sp)
   112fa:	7686                	ld	a3,96(sp)
   112fc:	00070c1b          	sext.w	s8,a4
   11300:	1ce6c263          	blt	a3,a4,114c4 <_vfprintf_r+0x1092>
   11304:	03805263          	blez	s8,11328 <_vfprintf_r+0xef6>
   11308:	11812683          	lw	a3,280(sp)
   1130c:	97e2                	add	a5,a5,s8
   1130e:	01a33023          	sd	s10,0(t1)
   11312:	0016861b          	addiw	a2,a3,1
   11316:	01833423          	sd	s8,8(t1)
   1131a:	f23e                	sd	a5,288(sp)
   1131c:	10c12c23          	sw	a2,280(sp)
   11320:	469d                	li	a3,7
   11322:	0341                	addi	t1,t1,16
   11324:	5ec6c263          	blt	a3,a2,11908 <_vfprintf_r+0x14d6>
   11328:	fffc4693          	not	a3,s8
   1132c:	7706                	ld	a4,96(sp)
   1132e:	96fd                	srai	a3,a3,0x3f
   11330:	00dc7c33          	and	s8,s8,a3
   11334:	41870c3b          	subw	s8,a4,s8
   11338:	23804363          	bgtz	s8,1155e <_vfprintf_r+0x112c>
   1133c:	7706                	ld	a4,96(sp)
   1133e:	40047693          	andi	a3,s0,1024
   11342:	00ed0c33          	add	s8,s10,a4
   11346:	44069063          	bnez	a3,11786 <_vfprintf_r+0x1354>
   1134a:	56ae                	lw	a3,232(sp)
   1134c:	7722                	ld	a4,40(sp)
   1134e:	00e6c663          	blt	a3,a4,1135a <_vfprintf_r+0xf28>
   11352:	00147613          	andi	a2,s0,1
   11356:	60060563          	beqz	a2,11960 <_vfprintf_r+0x152e>
   1135a:	660a                	ld	a2,128(sp)
   1135c:	7766                	ld	a4,120(sp)
   1135e:	0341                	addi	t1,t1,16
   11360:	fec33823          	sd	a2,-16(t1)
   11364:	11812603          	lw	a2,280(sp)
   11368:	97ba                	add	a5,a5,a4
   1136a:	fee33c23          	sd	a4,-8(t1)
   1136e:	0016059b          	addiw	a1,a2,1
   11372:	f23e                	sd	a5,288(sp)
   11374:	10b12c23          	sw	a1,280(sp)
   11378:	461d                	li	a2,7
   1137a:	14b641e3          	blt	a2,a1,11cbc <_vfprintf_r+0x188a>
   1137e:	7722                	ld	a4,40(sp)
   11380:	40d7063b          	subw	a2,a4,a3
   11384:	976a                	add	a4,a4,s10
   11386:	4187073b          	subw	a4,a4,s8
   1138a:	86b2                	mv	a3,a2
   1138c:	00c75363          	bge	a4,a2,11392 <_vfprintf_r+0xf60>
   11390:	86ba                	mv	a3,a4
   11392:	00068c9b          	sext.w	s9,a3
   11396:	03905263          	blez	s9,113ba <_vfprintf_r+0xf88>
   1139a:	11812703          	lw	a4,280(sp)
   1139e:	97e6                	add	a5,a5,s9
   113a0:	01833023          	sd	s8,0(t1)
   113a4:	0017059b          	addiw	a1,a4,1
   113a8:	01933423          	sd	s9,8(t1)
   113ac:	f23e                	sd	a5,288(sp)
   113ae:	10b12c23          	sw	a1,280(sp)
   113b2:	471d                	li	a4,7
   113b4:	0341                	addi	t1,t1,16
   113b6:	1ab744e3          	blt	a4,a1,11d5e <_vfprintf_r+0x192c>
   113ba:	fffccc13          	not	s8,s9
   113be:	43fc5c13          	srai	s8,s8,0x3f
   113c2:	018cfc33          	and	s8,s9,s8
   113c6:	41860c3b          	subw	s8,a2,s8
   113ca:	858059e3          	blez	s8,10c1c <_vfprintf_r+0x7ea>
   113ce:	11812703          	lw	a4,280(sp)
   113d2:	298dd163          	bge	s11,s8,11654 <_vfprintf_r+0x1222>
   113d6:	4c9d                	li	s9,7
   113d8:	a021                	j	113e0 <_vfprintf_r+0xfae>
   113da:	3c41                	addiw	s8,s8,-16
   113dc:	278ddc63          	bge	s11,s8,11654 <_vfprintf_r+0x1222>
   113e0:	2705                	addiw	a4,a4,1
   113e2:	07c1                	addi	a5,a5,16
   113e4:	01233023          	sd	s2,0(t1)
   113e8:	01b33423          	sd	s11,8(t1)
   113ec:	f23e                	sd	a5,288(sp)
   113ee:	10e12c23          	sw	a4,280(sp)
   113f2:	0341                	addi	t1,t1,16
   113f4:	feecd3e3          	bge	s9,a4,113da <_vfprintf_r+0xfa8>
   113f8:	0a10                	addi	a2,sp,272
   113fa:	85d2                	mv	a1,s4
   113fc:	8556                	mv	a0,s5
   113fe:	0740b0ef          	jal	ra,1c472 <__sprint_r>
   11402:	9e051f63          	bnez	a0,10600 <_vfprintf_r+0x1ce>
   11406:	7792                	ld	a5,288(sp)
   11408:	11812703          	lw	a4,280(sp)
   1140c:	835a                	mv	t1,s6
   1140e:	b7f1                	j	113da <_vfprintf_r+0xfa8>
   11410:	00147513          	andi	a0,s0,1
   11414:	ca051fe3          	bnez	a0,110d2 <_vfprintf_r+0xca0>
   11418:	00b33423          	sd	a1,8(t1)
   1141c:	f23e                	sd	a5,288(sp)
   1141e:	10d12c23          	sw	a3,280(sp)
   11422:	471d                	li	a4,7
   11424:	0cd74463          	blt	a4,a3,114ec <_vfprintf_r+0x10ba>
   11428:	002f0c9b          	addiw	s9,t5,2
   1142c:	02030313          	addi	t1,t1,32
   11430:	bb05                	j	11160 <_vfprintf_r+0xd2e>
   11432:	d31057e3          	blez	a7,11160 <_vfprintf_r+0xd2e>
   11436:	391dd7e3          	bge	s11,a7,11fc4 <_vfprintf_r+0x1b92>
   1143a:	4c9d                	li	s9,7
   1143c:	a031                	j	11448 <_vfprintf_r+0x1016>
   1143e:	38c1                	addiw	a7,a7,-16
   11440:	091dd763          	bge	s11,a7,114ce <_vfprintf_r+0x109c>
   11444:	00180e9b          	addiw	t4,a6,1
   11448:	07c1                	addi	a5,a5,16
   1144a:	012c3023          	sd	s2,0(s8)
   1144e:	01bc3423          	sd	s11,8(s8)
   11452:	f23e                	sd	a5,288(sp)
   11454:	000e881b          	sext.w	a6,t4
   11458:	11d12c23          	sw	t4,280(sp)
   1145c:	0c41                	addi	s8,s8,16
   1145e:	ff0cd0e3          	bge	s9,a6,1143e <_vfprintf_r+0x100c>
   11462:	0a10                	addi	a2,sp,272
   11464:	85d2                	mv	a1,s4
   11466:	8556                	mv	a0,s5
   11468:	ec46                	sd	a7,24(sp)
   1146a:	0080b0ef          	jal	ra,1c472 <__sprint_r>
   1146e:	98051963          	bnez	a0,10600 <_vfprintf_r+0x1ce>
   11472:	7792                	ld	a5,288(sp)
   11474:	11812803          	lw	a6,280(sp)
   11478:	8c5a                	mv	s8,s6
   1147a:	68e2                	ld	a7,24(sp)
   1147c:	b7c9                	j	1143e <_vfprintf_r+0x100c>
   1147e:	03000793          	li	a5,48
   11482:	18f105a3          	sb	a5,395(sp)
   11486:	18b10d13          	addi	s10,sp,395
   1148a:	a34ff06f          	j	106be <_vfprintf_r+0x28c>
   1148e:	67a2                	ld	a5,8(sp)
   11490:	8d26                	mv	s10,s1
   11492:	e31c                	sd	a5,0(a4)
   11494:	fbaff06f          	j	10c4e <_vfprintf_r+0x81c>
   11498:	67c2                	ld	a5,16(sp)
   1149a:	07bd                	addi	a5,a5,15
   1149c:	9bc1                	andi	a5,a5,-16
   1149e:	6394                	ld	a3,0(a5)
   114a0:	6798                	ld	a4,8(a5)
   114a2:	07c1                	addi	a5,a5,16
   114a4:	e83e                	sd	a5,16(sp)
   114a6:	e236                	sd	a3,256(sp)
   114a8:	e63a                	sd	a4,264(sp)
   114aa:	af4ff06f          	j	1079e <_vfprintf_r+0x36c>
   114ae:	86a2                	mv	a3,s0
   114b0:	e2cff06f          	j	10adc <_vfprintf_r+0x6aa>
   114b4:	67c2                	ld	a5,16(sp)
   114b6:	0007b983          	ld	s3,0(a5)
   114ba:	9b6ff06f          	j	10670 <_vfprintf_r+0x23e>
   114be:	86a2                	mv	a3,s0
   114c0:	cd4ff06f          	j	10994 <_vfprintf_r+0x562>
   114c4:	00068c1b          	sext.w	s8,a3
   114c8:	e58040e3          	bgtz	s8,11308 <_vfprintf_r+0xed6>
   114cc:	bdb1                	j	11328 <_vfprintf_r+0xef6>
   114ce:	00180c9b          	addiw	s9,a6,1
   114d2:	010c0713          	addi	a4,s8,16
   114d6:	97c6                	add	a5,a5,a7
   114d8:	012c3023          	sd	s2,0(s8)
   114dc:	011c3423          	sd	a7,8(s8)
   114e0:	f23e                	sd	a5,288(sp)
   114e2:	11912c23          	sw	s9,280(sp)
   114e6:	469d                	li	a3,7
   114e8:	3f96da63          	bge	a3,s9,118dc <_vfprintf_r+0x14aa>
   114ec:	0a10                	addi	a2,sp,272
   114ee:	85d2                	mv	a1,s4
   114f0:	8556                	mv	a0,s5
   114f2:	7810a0ef          	jal	ra,1c472 <__sprint_r>
   114f6:	90051563          	bnez	a0,10600 <_vfprintf_r+0x1ce>
   114fa:	11812f03          	lw	t5,280(sp)
   114fe:	7792                	ld	a5,288(sp)
   11500:	1a010313          	addi	t1,sp,416
   11504:	001f0c9b          	addiw	s9,t5,1
   11508:	8c5a                	mv	s8,s6
   1150a:	b999                	j	11160 <_vfprintf_r+0xd2e>
   1150c:	20046413          	ori	s0,s0,512
   11510:	0014cf03          	lbu	t5,1(s1)
   11514:	2401                	sext.w	s0,s0
   11516:	0485                	addi	s1,s1,1
   11518:	85aff06f          	j	10572 <_vfprintf_r+0x140>
   1151c:	0a10                	addi	a2,sp,272
   1151e:	85d2                	mv	a1,s4
   11520:	8556                	mv	a0,s5
   11522:	7510a0ef          	jal	ra,1c472 <__sprint_r>
   11526:	8c051d63          	bnez	a0,10600 <_vfprintf_r+0x1ce>
   1152a:	7792                	ld	a5,288(sp)
   1152c:	835a                	mv	t1,s6
   1152e:	bc15                	j	10f62 <_vfprintf_r+0xb30>
   11530:	02046413          	ori	s0,s0,32
   11534:	0014cf03          	lbu	t5,1(s1)
   11538:	2401                	sext.w	s0,s0
   1153a:	0485                	addi	s1,s1,1
   1153c:	836ff06f          	j	10572 <_vfprintf_r+0x140>
   11540:	000e871b          	sext.w	a4,t4
   11544:	4799                	li	a5,6
   11546:	3ce7ec63          	bltu	a5,a4,1191e <_vfprintf_r+0x14ec>
   1154a:	000e8c1b          	sext.w	s8,t4
   1154e:	89e2                	mv	s3,s8
   11550:	e836                	sd	a3,16(sp)
   11552:	00011d17          	auipc	s10,0x11
   11556:	e1ed0d13          	addi	s10,s10,-482 # 22370 <zeroes.4541+0x98>
   1155a:	e08ff06f          	j	10b62 <_vfprintf_r+0x730>
   1155e:	11812683          	lw	a3,280(sp)
   11562:	1f8dd963          	bge	s11,s8,11754 <_vfprintf_r+0x1322>
   11566:	4c9d                	li	s9,7
   11568:	a021                	j	11570 <_vfprintf_r+0x113e>
   1156a:	3c41                	addiw	s8,s8,-16
   1156c:	1f8dd463          	bge	s11,s8,11754 <_vfprintf_r+0x1322>
   11570:	2685                	addiw	a3,a3,1
   11572:	07c1                	addi	a5,a5,16
   11574:	01233023          	sd	s2,0(t1)
   11578:	01b33423          	sd	s11,8(t1)
   1157c:	f23e                	sd	a5,288(sp)
   1157e:	10d12c23          	sw	a3,280(sp)
   11582:	0341                	addi	t1,t1,16
   11584:	fedcd3e3          	bge	s9,a3,1156a <_vfprintf_r+0x1138>
   11588:	0a10                	addi	a2,sp,272
   1158a:	85d2                	mv	a1,s4
   1158c:	8556                	mv	a0,s5
   1158e:	6e50a0ef          	jal	ra,1c472 <__sprint_r>
   11592:	c119                	beqz	a0,11598 <_vfprintf_r+0x1166>
   11594:	86cff06f          	j	10600 <_vfprintf_r+0x1ce>
   11598:	7792                	ld	a5,288(sp)
   1159a:	11812683          	lw	a3,280(sp)
   1159e:	835a                	mv	t1,s6
   115a0:	b7e9                	j	1156a <_vfprintf_r+0x1138>
   115a2:	89ea                	mv	s3,s10
   115a4:	fb7fe06f          	j	1055a <_vfprintf_r+0x128>
   115a8:	0a10                	addi	a2,sp,272
   115aa:	85d2                	mv	a1,s4
   115ac:	8556                	mv	a0,s5
   115ae:	6c50a0ef          	jal	ra,1c472 <__sprint_r>
   115b2:	c119                	beqz	a0,115b8 <_vfprintf_r+0x1186>
   115b4:	84cff06f          	j	10600 <_vfprintf_r+0x1ce>
   115b8:	7792                	ld	a5,288(sp)
   115ba:	11812683          	lw	a3,280(sp)
   115be:	8c5a                	mv	s8,s6
   115c0:	b615                	j	110e4 <_vfprintf_r+0xcb2>
   115c2:	0a10                	addi	a2,sp,272
   115c4:	85d2                	mv	a1,s4
   115c6:	8556                	mv	a0,s5
   115c8:	6ab0a0ef          	jal	ra,1c472 <__sprint_r>
   115cc:	c119                	beqz	a0,115d2 <_vfprintf_r+0x11a0>
   115ce:	832ff06f          	j	10600 <_vfprintf_r+0x1ce>
   115d2:	7792                	ld	a5,288(sp)
   115d4:	11812803          	lw	a6,280(sp)
   115d8:	8c5a                	mv	s8,s6
   115da:	b62d                	j	11104 <_vfprintf_r+0xcd2>
   115dc:	11812683          	lw	a3,280(sp)
   115e0:	00011617          	auipc	a2,0x11
   115e4:	d9860613          	addi	a2,a2,-616 # 22378 <zeroes.4541+0xa0>
   115e8:	00c33023          	sd	a2,0(t1)
   115ec:	2685                	addiw	a3,a3,1
   115ee:	4605                	li	a2,1
   115f0:	0785                	addi	a5,a5,1
   115f2:	00c33423          	sd	a2,8(t1)
   115f6:	10d12c23          	sw	a3,280(sp)
   115fa:	0006861b          	sext.w	a2,a3
   115fe:	f23e                	sd	a5,288(sp)
   11600:	469d                	li	a3,7
   11602:	0341                	addi	t1,t1,16
   11604:	2ec6c163          	blt	a3,a2,118e6 <_vfprintf_r+0x14b4>
   11608:	e8059063          	bnez	a1,10c88 <_vfprintf_r+0x856>
   1160c:	7722                	ld	a4,40(sp)
   1160e:	00147693          	andi	a3,s0,1
   11612:	8ed9                	or	a3,a3,a4
   11614:	e0068463          	beqz	a3,10c1c <_vfprintf_r+0x7ea>
   11618:	11812603          	lw	a2,280(sp)
   1161c:	7766                	ld	a4,120(sp)
   1161e:	668a                	ld	a3,128(sp)
   11620:	97ba                	add	a5,a5,a4
   11622:	00d33023          	sd	a3,0(t1)
   11626:	0016069b          	addiw	a3,a2,1
   1162a:	00e33423          	sd	a4,8(t1)
   1162e:	f23e                	sd	a5,288(sp)
   11630:	10d12c23          	sw	a3,280(sp)
   11634:	461d                	li	a2,7
   11636:	e6d64b63          	blt	a2,a3,10cac <_vfprintf_r+0x87a>
   1163a:	0341                	addi	t1,t1,16
   1163c:	e90ff06f          	j	10ccc <_vfprintf_r+0x89a>
   11640:	0a10                	addi	a2,sp,272
   11642:	85d2                	mv	a1,s4
   11644:	8556                	mv	a0,s5
   11646:	62d0a0ef          	jal	ra,1c472 <__sprint_r>
   1164a:	c119                	beqz	a0,11650 <_vfprintf_r+0x121e>
   1164c:	fb5fe06f          	j	10600 <_vfprintf_r+0x1ce>
   11650:	835a                	mv	t1,s6
   11652:	b8d9                	j	10f28 <_vfprintf_r+0xaf6>
   11654:	0017069b          	addiw	a3,a4,1
   11658:	8736                	mv	a4,a3
   1165a:	97e2                	add	a5,a5,s8
   1165c:	01233023          	sd	s2,0(t1)
   11660:	daaff06f          	j	10c0a <_vfprintf_r+0x7d8>
   11664:	6512                	ld	a0,256(sp)
   11666:	65b2                	ld	a1,264(sp)
   11668:	4601                	li	a2,0
   1166a:	4681                	li	a3,0
   1166c:	ec1a                	sd	t1,24(sp)
   1166e:	7880f0ef          	jal	ra,20df6 <__letf2>
   11672:	6362                	ld	t1,24(sp)
   11674:	66054163          	bltz	a0,11cd6 <_vfprintf_r+0x18a4>
   11678:	0df14783          	lbu	a5,223(sp)
   1167c:	04700693          	li	a3,71
   11680:	00011d17          	auipc	s10,0x11
   11684:	ca0d0d13          	addi	s10,s10,-864 # 22320 <zeroes.4541+0x48>
   11688:	2796cb63          	blt	a3,s9,118fe <_vfprintf_r+0x14cc>
   1168c:	f7f47413          	andi	s0,s0,-129
   11690:	f002                	sd	zero,32(sp)
   11692:	ec82                	sd	zero,88(sp)
   11694:	f482                	sd	zero,104(sp)
   11696:	f082                	sd	zero,96(sp)
   11698:	2401                	sext.w	s0,s0
   1169a:	498d                	li	s3,3
   1169c:	4c0d                	li	s8,3
   1169e:	4e81                	li	t4,0
   116a0:	c399                	beqz	a5,116a6 <_vfprintf_r+0x1274>
   116a2:	838ff06f          	j	106da <_vfprintf_r+0x2a8>
   116a6:	cc6ff06f          	j	10b6c <_vfprintf_r+0x73a>
   116aa:	856a                	mv	a0,s10
   116ac:	ec1a                	sd	t1,24(sp)
   116ae:	e836                	sd	a3,16(sp)
   116b0:	72a070ef          	jal	ra,18dda <strlen>
   116b4:	00050c1b          	sext.w	s8,a0
   116b8:	fffc4993          	not	s3,s8
   116bc:	0df14783          	lbu	a5,223(sp)
   116c0:	43f9d993          	srai	s3,s3,0x3f
   116c4:	013c79b3          	and	s3,s8,s3
   116c8:	f002                	sd	zero,32(sp)
   116ca:	ec82                	sd	zero,88(sp)
   116cc:	f482                	sd	zero,104(sp)
   116ce:	f082                	sd	zero,96(sp)
   116d0:	2981                	sext.w	s3,s3
   116d2:	4e81                	li	t4,0
   116d4:	6362                	ld	t1,24(sp)
   116d6:	c399                	beqz	a5,116dc <_vfprintf_r+0x12aa>
   116d8:	802ff06f          	j	106da <_vfprintf_r+0x2a8>
   116dc:	c90ff06f          	j	10b6c <_vfprintf_r+0x73a>
   116e0:	20047793          	andi	a5,s0,512
   116e4:	2c078163          	beqz	a5,119a6 <_vfprintf_r+0x1574>
   116e8:	0ff9f993          	andi	s3,s3,255
   116ec:	f85fe06f          	j	10670 <_vfprintf_r+0x23e>
   116f0:	20047793          	andi	a5,s0,512
   116f4:	2a078163          	beqz	a5,11996 <_vfprintf_r+0x1564>
   116f8:	0ff9f993          	andi	s3,s3,255
   116fc:	e83a                	sd	a4,16(sp)
   116fe:	86a2                	mv	a3,s0
   11700:	4785                	li	a5,1
   11702:	f95fe06f          	j	10696 <_vfprintf_r+0x264>
   11706:	20047793          	andi	a5,s0,512
   1170a:	2a078363          	beqz	a5,119b0 <_vfprintf_r+0x157e>
   1170e:	0ff9f993          	andi	s3,s3,255
   11712:	e83a                	sd	a4,16(sp)
   11714:	b00ff06f          	j	10a14 <_vfprintf_r+0x5e2>
   11718:	20047793          	andi	a5,s0,512
   1171c:	24078f63          	beqz	a5,1197a <_vfprintf_r+0x1548>
   11720:	67c2                	ld	a5,16(sp)
   11722:	86a2                	mv	a3,s0
   11724:	e83a                	sd	a4,16(sp)
   11726:	00078983          	lb	s3,0(a5)
   1172a:	87ce                	mv	a5,s3
   1172c:	b26ff06f          	j	10a52 <_vfprintf_r+0x620>
   11730:	67b2                	ld	a5,264(sp)
   11732:	2807c563          	bltz	a5,119bc <_vfprintf_r+0x158a>
   11736:	0df14783          	lbu	a5,223(sp)
   1173a:	04700693          	li	a3,71
   1173e:	00011d17          	auipc	s10,0x11
   11742:	bf2d0d13          	addi	s10,s10,-1038 # 22330 <zeroes.4541+0x58>
   11746:	f596d3e3          	bge	a3,s9,1168c <_vfprintf_r+0x125a>
   1174a:	00011d17          	auipc	s10,0x11
   1174e:	beed0d13          	addi	s10,s10,-1042 # 22338 <zeroes.4541+0x60>
   11752:	bf2d                	j	1168c <_vfprintf_r+0x125a>
   11754:	0016861b          	addiw	a2,a3,1
   11758:	97e2                	add	a5,a5,s8
   1175a:	01233023          	sd	s2,0(t1)
   1175e:	01833423          	sd	s8,8(t1)
   11762:	f23e                	sd	a5,288(sp)
   11764:	10c12c23          	sw	a2,280(sp)
   11768:	469d                	li	a3,7
   1176a:	0341                	addi	t1,t1,16
   1176c:	bcc6d8e3          	bge	a3,a2,1133c <_vfprintf_r+0xf0a>
   11770:	0a10                	addi	a2,sp,272
   11772:	85d2                	mv	a1,s4
   11774:	8556                	mv	a0,s5
   11776:	4fd0a0ef          	jal	ra,1c472 <__sprint_r>
   1177a:	c119                	beqz	a0,11780 <_vfprintf_r+0x134e>
   1177c:	e85fe06f          	j	10600 <_vfprintf_r+0x1ce>
   11780:	7792                	ld	a5,288(sp)
   11782:	835a                	mv	t1,s6
   11784:	be65                	j	1133c <_vfprintf_r+0xf0a>
   11786:	7722                	ld	a4,40(sp)
   11788:	4c9d                	li	s9,7
   1178a:	976a                	add	a4,a4,s10
   1178c:	fc3a                	sd	a4,56(sp)
   1178e:	7726                	ld	a4,104(sp)
   11790:	cb51                	beqz	a4,11824 <_vfprintf_r+0x13f2>
   11792:	6766                	ld	a4,88(sp)
   11794:	eb59                	bnez	a4,1182a <_vfprintf_r+0x13f8>
   11796:	7746                	ld	a4,112(sp)
   11798:	177d                	addi	a4,a4,-1
   1179a:	f8ba                	sd	a4,112(sp)
   1179c:	7726                	ld	a4,104(sp)
   1179e:	377d                	addiw	a4,a4,-1
   117a0:	f4ba                	sd	a4,104(sp)
   117a2:	66ea                	ld	a3,152(sp)
   117a4:	672a                	ld	a4,136(sp)
   117a6:	0341                	addi	t1,t1,16
   117a8:	fed33823          	sd	a3,-16(t1)
   117ac:	11812683          	lw	a3,280(sp)
   117b0:	97ba                	add	a5,a5,a4
   117b2:	fee33c23          	sd	a4,-8(t1)
   117b6:	0016861b          	addiw	a2,a3,1
   117ba:	f23e                	sd	a5,288(sp)
   117bc:	10c12c23          	sw	a2,280(sp)
   117c0:	0eccc163          	blt	s9,a2,118a2 <_vfprintf_r+0x1470>
   117c4:	7746                	ld	a4,112(sp)
   117c6:	00074603          	lbu	a2,0(a4)
   117ca:	7762                	ld	a4,56(sp)
   117cc:	0006069b          	sext.w	a3,a2
   117d0:	418705bb          	subw	a1,a4,s8
   117d4:	0006881b          	sext.w	a6,a3
   117d8:	00d5d463          	bge	a1,a3,117e0 <_vfprintf_r+0x13ae>
   117dc:	0005881b          	sext.w	a6,a1
   117e0:	03005663          	blez	a6,1180c <_vfprintf_r+0x13da>
   117e4:	11812683          	lw	a3,280(sp)
   117e8:	97c2                	add	a5,a5,a6
   117ea:	01833023          	sd	s8,0(t1)
   117ee:	0016861b          	addiw	a2,a3,1
   117f2:	01033423          	sd	a6,8(t1)
   117f6:	f23e                	sd	a5,288(sp)
   117f8:	10c12c23          	sw	a2,280(sp)
   117fc:	0accce63          	blt	s9,a2,118b8 <_vfprintf_r+0x1486>
   11800:	7746                	ld	a4,112(sp)
   11802:	0341                	addi	t1,t1,16
   11804:	00074603          	lbu	a2,0(a4)
   11808:	0006069b          	sext.w	a3,a2
   1180c:	fff84593          	not	a1,a6
   11810:	95fd                	srai	a1,a1,0x3f
   11812:	00b87833          	and	a6,a6,a1
   11816:	410686bb          	subw	a3,a3,a6
   1181a:	00d04c63          	bgtz	a3,11832 <_vfprintf_r+0x1400>
   1181e:	9c32                	add	s8,s8,a2
   11820:	7726                	ld	a4,104(sp)
   11822:	fb25                	bnez	a4,11792 <_vfprintf_r+0x1360>
   11824:	6766                	ld	a4,88(sp)
   11826:	34070763          	beqz	a4,11b74 <_vfprintf_r+0x1742>
   1182a:	6766                	ld	a4,88(sp)
   1182c:	377d                	addiw	a4,a4,-1
   1182e:	ecba                	sd	a4,88(sp)
   11830:	bf8d                	j	117a2 <_vfprintf_r+0x1370>
   11832:	11812603          	lw	a2,280(sp)
   11836:	00ddc663          	blt	s11,a3,11842 <_vfprintf_r+0x1410>
   1183a:	a089                	j	1187c <_vfprintf_r+0x144a>
   1183c:	36c1                	addiw	a3,a3,-16
   1183e:	02dddf63          	bge	s11,a3,1187c <_vfprintf_r+0x144a>
   11842:	2605                	addiw	a2,a2,1
   11844:	07c1                	addi	a5,a5,16
   11846:	01233023          	sd	s2,0(t1)
   1184a:	01b33423          	sd	s11,8(t1)
   1184e:	f23e                	sd	a5,288(sp)
   11850:	10c12c23          	sw	a2,280(sp)
   11854:	0341                	addi	t1,t1,16
   11856:	feccd3e3          	bge	s9,a2,1183c <_vfprintf_r+0x140a>
   1185a:	0a10                	addi	a2,sp,272
   1185c:	85d2                	mv	a1,s4
   1185e:	8556                	mv	a0,s5
   11860:	ec36                	sd	a3,24(sp)
   11862:	4110a0ef          	jal	ra,1c472 <__sprint_r>
   11866:	c119                	beqz	a0,1186c <_vfprintf_r+0x143a>
   11868:	d99fe06f          	j	10600 <_vfprintf_r+0x1ce>
   1186c:	66e2                	ld	a3,24(sp)
   1186e:	7792                	ld	a5,288(sp)
   11870:	11812603          	lw	a2,280(sp)
   11874:	36c1                	addiw	a3,a3,-16
   11876:	835a                	mv	t1,s6
   11878:	fcddc5e3          	blt	s11,a3,11842 <_vfprintf_r+0x1410>
   1187c:	2605                	addiw	a2,a2,1
   1187e:	97b6                	add	a5,a5,a3
   11880:	00d33423          	sd	a3,8(t1)
   11884:	01233023          	sd	s2,0(t1)
   11888:	f23e                	sd	a5,288(sp)
   1188a:	0006069b          	sext.w	a3,a2
   1188e:	10c12c23          	sw	a2,280(sp)
   11892:	40dcc263          	blt	s9,a3,11c96 <_vfprintf_r+0x1864>
   11896:	7746                	ld	a4,112(sp)
   11898:	0341                	addi	t1,t1,16
   1189a:	00074603          	lbu	a2,0(a4)
   1189e:	9c32                	add	s8,s8,a2
   118a0:	b741                	j	11820 <_vfprintf_r+0x13ee>
   118a2:	0a10                	addi	a2,sp,272
   118a4:	85d2                	mv	a1,s4
   118a6:	8556                	mv	a0,s5
   118a8:	3cb0a0ef          	jal	ra,1c472 <__sprint_r>
   118ac:	c119                	beqz	a0,118b2 <_vfprintf_r+0x1480>
   118ae:	d53fe06f          	j	10600 <_vfprintf_r+0x1ce>
   118b2:	7792                	ld	a5,288(sp)
   118b4:	835a                	mv	t1,s6
   118b6:	b739                	j	117c4 <_vfprintf_r+0x1392>
   118b8:	0a10                	addi	a2,sp,272
   118ba:	85d2                	mv	a1,s4
   118bc:	8556                	mv	a0,s5
   118be:	ec42                	sd	a6,24(sp)
   118c0:	3b30a0ef          	jal	ra,1c472 <__sprint_r>
   118c4:	c119                	beqz	a0,118ca <_vfprintf_r+0x1498>
   118c6:	d3bfe06f          	j	10600 <_vfprintf_r+0x1ce>
   118ca:	77c6                	ld	a5,112(sp)
   118cc:	835a                	mv	t1,s6
   118ce:	6862                	ld	a6,24(sp)
   118d0:	0007c603          	lbu	a2,0(a5)
   118d4:	7792                	ld	a5,288(sp)
   118d6:	0006069b          	sext.w	a3,a2
   118da:	bf0d                	j	1180c <_vfprintf_r+0x13da>
   118dc:	2c85                	addiw	s9,s9,1
   118de:	01070313          	addi	t1,a4,16
   118e2:	8c3a                	mv	s8,a4
   118e4:	b8b5                	j	11160 <_vfprintf_r+0xd2e>
   118e6:	0a10                	addi	a2,sp,272
   118e8:	85d2                	mv	a1,s4
   118ea:	8556                	mv	a0,s5
   118ec:	3870a0ef          	jal	ra,1c472 <__sprint_r>
   118f0:	c119                	beqz	a0,118f6 <_vfprintf_r+0x14c4>
   118f2:	d0ffe06f          	j	10600 <_vfprintf_r+0x1ce>
   118f6:	55ae                	lw	a1,232(sp)
   118f8:	7792                	ld	a5,288(sp)
   118fa:	835a                	mv	t1,s6
   118fc:	b331                	j	11608 <_vfprintf_r+0x11d6>
   118fe:	00011d17          	auipc	s10,0x11
   11902:	a2ad0d13          	addi	s10,s10,-1494 # 22328 <zeroes.4541+0x50>
   11906:	b359                	j	1168c <_vfprintf_r+0x125a>
   11908:	0a10                	addi	a2,sp,272
   1190a:	85d2                	mv	a1,s4
   1190c:	8556                	mv	a0,s5
   1190e:	3650a0ef          	jal	ra,1c472 <__sprint_r>
   11912:	c119                	beqz	a0,11918 <_vfprintf_r+0x14e6>
   11914:	cedfe06f          	j	10600 <_vfprintf_r+0x1ce>
   11918:	7792                	ld	a5,288(sp)
   1191a:	835a                	mv	t1,s6
   1191c:	b431                	j	11328 <_vfprintf_r+0xef6>
   1191e:	4e99                	li	t4,6
   11920:	b12d                	j	1154a <_vfprintf_r+0x1118>
   11922:	e0be                	sd	a5,64(sp)
   11924:	67aa                	ld	a5,136(sp)
   11926:	65ea                	ld	a1,152(sp)
   11928:	fc1a                	sd	t1,56(sp)
   1192a:	40fd0d33          	sub	s10,s10,a5
   1192e:	863e                	mv	a2,a5
   11930:	856a                	mv	a0,s10
   11932:	f076                	sd	t4,32(sp)
   11934:	ec36                	sd	a3,24(sp)
   11936:	53c070ef          	jal	ra,18e72 <strncpy>
   1193a:	77c6                	ld	a5,112(sp)
   1193c:	0289d633          	divu	a2,s3,s0
   11940:	f402                	sd	zero,40(sp)
   11942:	0017c583          	lbu	a1,1(a5)
   11946:	66e2                	ld	a3,24(sp)
   11948:	7e82                	ld	t4,32(sp)
   1194a:	00b035b3          	snez	a1,a1
   1194e:	97ae                	add	a5,a5,a1
   11950:	f8be                	sd	a5,112(sp)
   11952:	7362                	ld	t1,56(sp)
   11954:	6786                	ld	a5,64(sp)
   11956:	4825                	li	a6,9
   11958:	0ff00893          	li	a7,255
   1195c:	d48ff06f          	j	10ea4 <_vfprintf_r+0xa72>
   11960:	7622                	ld	a2,40(sp)
   11962:	00cd0733          	add	a4,s10,a2
   11966:	41870ebb          	subw	t4,a4,s8
   1196a:	9e15                	subw	a2,a2,a3
   1196c:	8c76                	mv	s8,t4
   1196e:	01d65363          	bge	a2,t4,11974 <_vfprintf_r+0x1542>
   11972:	8c32                	mv	s8,a2
   11974:	000c0c9b          	sext.w	s9,s8
   11978:	b489                	j	113ba <_vfprintf_r+0xf88>
   1197a:	67c2                	ld	a5,16(sp)
   1197c:	86a2                	mv	a3,s0
   1197e:	e83a                	sd	a4,16(sp)
   11980:	0007a983          	lw	s3,0(a5)
   11984:	87ce                	mv	a5,s3
   11986:	8ccff06f          	j	10a52 <_vfprintf_r+0x620>
   1198a:	67a2                	ld	a5,8(sp)
   1198c:	8d26                	mv	s10,s1
   1198e:	00f71023          	sh	a5,0(a4)
   11992:	abcff06f          	j	10c4e <_vfprintf_r+0x81c>
   11996:	1982                	slli	s3,s3,0x20
   11998:	0209d993          	srli	s3,s3,0x20
   1199c:	e83a                	sd	a4,16(sp)
   1199e:	86a2                	mv	a3,s0
   119a0:	4785                	li	a5,1
   119a2:	cf5fe06f          	j	10696 <_vfprintf_r+0x264>
   119a6:	1982                	slli	s3,s3,0x20
   119a8:	0209d993          	srli	s3,s3,0x20
   119ac:	cc5fe06f          	j	10670 <_vfprintf_r+0x23e>
   119b0:	1982                	slli	s3,s3,0x20
   119b2:	0209d993          	srli	s3,s3,0x20
   119b6:	e83a                	sd	a4,16(sp)
   119b8:	85cff06f          	j	10a14 <_vfprintf_r+0x5e2>
   119bc:	02d00793          	li	a5,45
   119c0:	0cf10fa3          	sb	a5,223(sp)
   119c4:	bb9d                	j	1173a <_vfprintf_r+0x1308>
   119c6:	03000793          	li	a5,48
   119ca:	0ef10023          	sb	a5,224(sp)
   119ce:	05800713          	li	a4,88
   119d2:	00246793          	ori	a5,s0,2
   119d6:	2781                	sext.w	a5,a5
   119d8:	0ee100a3          	sb	a4,225(sp)
   119dc:	06300693          	li	a3,99
   119e0:	f93e                	sd	a5,176(sp)
   119e2:	f002                	sd	zero,32(sp)
   119e4:	12810d13          	addi	s10,sp,296
   119e8:	41d6cc63          	blt	a3,t4,11e00 <_vfprintf_r+0x19ce>
   119ec:	6c32                	ld	s8,264(sp)
   119ee:	fdfcf793          	andi	a5,s9,-33
   119f2:	10246413          	ori	s0,s0,258
   119f6:	f53e                	sd	a5,168(sp)
   119f8:	e582                	sd	zero,200(sp)
   119fa:	2401                	sext.w	s0,s0
   119fc:	6f92                	ld	t6,256(sp)
   119fe:	280c4463          	bltz	s8,11c86 <_vfprintf_r+0x1854>
   11a02:	06100793          	li	a5,97
   11a06:	52fc8d63          	beq	s9,a5,11f40 <_vfprintf_r+0x1b0e>
   11a0a:	04100793          	li	a5,65
   11a0e:	00fc8463          	beq	s9,a5,11a16 <_vfprintf_r+0x15e4>
   11a12:	df7fe06f          	j	10808 <_vfprintf_r+0x3d6>
   11a16:	857e                	mv	a0,t6
   11a18:	85e2                	mv	a1,s8
   11a1a:	fc1a                	sd	t1,56(sp)
   11a1c:	f476                	sd	t4,40(sp)
   11a1e:	458100ef          	jal	ra,21e76 <__trunctfdf2>
   11a22:	11a8                	addi	a0,sp,232
   11a24:	03e070ef          	jal	ra,18a62 <frexp>
   11a28:	38a100ef          	jal	ra,21db2 <__extenddftf2>
   11a2c:	00011797          	auipc	a5,0x11
   11a30:	8e478793          	addi	a5,a5,-1820 # 22310 <zeroes.4541+0x38>
   11a34:	6794                	ld	a3,8(a5)
   11a36:	4601                	li	a2,0
   11a38:	46c0f0ef          	jal	ra,20ea4 <__multf3>
   11a3c:	4601                	li	a2,0
   11a3e:	4681                	li	a3,0
   11a40:	8c2a                	mv	s8,a0
   11a42:	ec2e                	sd	a1,24(sp)
   11a44:	2680f0ef          	jal	ra,20cac <__eqtf2>
   11a48:	62e2                	ld	t0,24(sp)
   11a4a:	7ea2                	ld	t4,40(sp)
   11a4c:	7362                	ld	t1,56(sp)
   11a4e:	e119                	bnez	a0,11a54 <_vfprintf_r+0x1622>
   11a50:	4785                	li	a5,1
   11a52:	d5be                	sw	a5,232(sp)
   11a54:	00011797          	auipc	a5,0x11
   11a58:	90478793          	addi	a5,a5,-1788 # 22358 <zeroes.4541+0x80>
   11a5c:	f0be                	sd	a5,96(sp)
   11a5e:	000e869b          	sext.w	a3,t4
   11a62:	02069793          	slli	a5,a3,0x20
   11a66:	9381                	srli	a5,a5,0x20
   11a68:	0785                	addi	a5,a5,1
   11a6a:	97ea                	add	a5,a5,s10
   11a6c:	f13e                	sd	a5,160(sp)
   11a6e:	00dd07bb          	addw	a5,s10,a3
   11a72:	df3e                	sw	a5,188(sp)
   11a74:	00011797          	auipc	a5,0x11
   11a78:	87c78793          	addi	a5,a5,-1924 # 222f0 <zeroes.4541+0x18>
   11a7c:	679c                	ld	a5,8(a5)
   11a7e:	ec6a                	sd	s10,24(sp)
   11a80:	e1be                	sd	a5,192(sp)
   11a82:	a839                	j	11aa0 <_vfprintf_r+0x166e>
   11a84:	4601                	li	a2,0
   11a86:	4681                	li	a3,0
   11a88:	ecae                	sd	a1,88(sp)
   11a8a:	e8aa                	sd	a0,80(sp)
   11a8c:	2200f0ef          	jal	ra,20cac <__eqtf2>
   11a90:	7ee2                	ld	t4,56(sp)
   11a92:	6306                	ld	t1,64(sp)
   11a94:	6fc6                	ld	t6,80(sp)
   11a96:	68e6                	ld	a7,88(sp)
   11a98:	77a2                	ld	a5,40(sp)
   11a9a:	62a6                	ld	t0,72(sp)
   11a9c:	c135                	beqz	a0,11b00 <_vfprintf_r+0x16ce>
   11a9e:	ec3e                	sd	a5,24(sp)
   11aa0:	668e                	ld	a3,192(sp)
   11aa2:	4601                	li	a2,0
   11aa4:	8596                	mv	a1,t0
   11aa6:	8562                	mv	a0,s8
   11aa8:	e09a                	sd	t1,64(sp)
   11aaa:	fc76                	sd	t4,56(sp)
   11aac:	3f80f0ef          	jal	ra,20ea4 <__multf3>
   11ab0:	8c2e                	mv	s8,a1
   11ab2:	f42a                	sd	a0,40(sp)
   11ab4:	210100ef          	jal	ra,21cc4 <__fixtfsi>
   11ab8:	0005099b          	sext.w	s3,a0
   11abc:	854e                	mv	a0,s3
   11abe:	296100ef          	jal	ra,21d54 <__floatsitf>
   11ac2:	7822                	ld	a6,40(sp)
   11ac4:	86ae                	mv	a3,a1
   11ac6:	862a                	mv	a2,a0
   11ac8:	85e2                	mv	a1,s8
   11aca:	8542                	mv	a0,a6
   11acc:	1df0f0ef          	jal	ra,214aa <__subtf3>
   11ad0:	7786                	ld	a5,96(sp)
   11ad2:	577a                	lw	a4,188(sp)
   11ad4:	e4ae                	sd	a1,72(sp)
   11ad6:	97ce                	add	a5,a5,s3
   11ad8:	0007c683          	lbu	a3,0(a5)
   11adc:	67e2                	ld	a5,24(sp)
   11ade:	8faa                	mv	t6,a0
   11ae0:	88ae                	mv	a7,a1
   11ae2:	00d78023          	sb	a3,0(a5)
   11ae6:	0785                	addi	a5,a5,1
   11ae8:	9f1d                	subw	a4,a4,a5
   11aea:	f4ba                	sd	a4,104(sp)
   11aec:	770a                	ld	a4,160(sp)
   11aee:	f43e                	sd	a5,40(sp)
   11af0:	8c2a                	mv	s8,a0
   11af2:	7ee2                	ld	t4,56(sp)
   11af4:	6306                	ld	t1,64(sp)
   11af6:	f8e797e3          	bne	a5,a4,11a84 <_vfprintf_r+0x1652>
   11afa:	778a                	ld	a5,160(sp)
   11afc:	577d                	li	a4,-1
   11afe:	f4ba                	sd	a4,104(sp)
   11b00:	00011697          	auipc	a3,0x11
   11b04:	80068693          	addi	a3,a3,-2048 # 22300 <zeroes.4541+0x28>
   11b08:	e4be                	sd	a5,72(sp)
   11b0a:	669c                	ld	a5,8(a3)
   11b0c:	4601                	li	a2,0
   11b0e:	857e                	mv	a0,t6
   11b10:	86be                	mv	a3,a5
   11b12:	85c6                	mv	a1,a7
   11b14:	e09a                	sd	t1,64(sp)
   11b16:	fc76                	sd	t4,56(sp)
   11b18:	f43e                	sd	a5,40(sp)
   11b1a:	ecfe                	sd	t6,88(sp)
   11b1c:	e8c6                	sd	a7,80(sp)
   11b1e:	22a0f0ef          	jal	ra,20d48 <__getf2>
   11b22:	7ee2                	ld	t4,56(sp)
   11b24:	6306                	ld	t1,64(sp)
   11b26:	67a6                	ld	a5,72(sp)
   11b28:	30a04163          	bgtz	a0,11e2a <_vfprintf_r+0x19f8>
   11b2c:	6fe6                	ld	t6,88(sp)
   11b2e:	68c6                	ld	a7,80(sp)
   11b30:	76a2                	ld	a3,40(sp)
   11b32:	4601                	li	a2,0
   11b34:	857e                	mv	a0,t6
   11b36:	85c6                	mv	a1,a7
   11b38:	1740f0ef          	jal	ra,20cac <__eqtf2>
   11b3c:	7ee2                	ld	t4,56(sp)
   11b3e:	6306                	ld	t1,64(sp)
   11b40:	67a6                	ld	a5,72(sp)
   11b42:	e509                	bnez	a0,11b4c <_vfprintf_r+0x171a>
   11b44:	0019f993          	andi	s3,s3,1
   11b48:	2e099163          	bnez	s3,11e2a <_vfprintf_r+0x19f8>
   11b4c:	7726                	ld	a4,104(sp)
   11b4e:	03000613          	li	a2,48
   11b52:	00170693          	addi	a3,a4,1
   11b56:	96be                	add	a3,a3,a5
   11b58:	00075463          	bgez	a4,11b60 <_vfprintf_r+0x172e>
   11b5c:	d0bfe06f          	j	10866 <_vfprintf_r+0x434>
   11b60:	0785                	addi	a5,a5,1
   11b62:	fec78fa3          	sb	a2,-1(a5)
   11b66:	fef69de3          	bne	a3,a5,11b60 <_vfprintf_r+0x172e>
   11b6a:	cfdfe06f          	j	10866 <_vfprintf_r+0x434>
   11b6e:	86a2                	mv	a3,s0
   11b70:	b02ff06f          	j	10e72 <_vfprintf_r+0xa40>
   11b74:	7722                	ld	a4,40(sp)
   11b76:	00ed06b3          	add	a3,s10,a4
   11b7a:	fd86f863          	bgeu	a3,s8,1134a <_vfprintf_r+0xf18>
   11b7e:	8c36                	mv	s8,a3
   11b80:	fcaff06f          	j	1134a <_vfprintf_r+0xf18>
   11b84:	7706                	ld	a4,96(sp)
   11b86:	57f5                	li	a5,-3
   11b88:	00f74463          	blt	a4,a5,11b90 <_vfprintf_r+0x175e>
   11b8c:	0aeed463          	bge	t4,a4,11c34 <_vfprintf_r+0x1802>
   11b90:	3cf9                	addiw	s9,s9,-2
   11b92:	fdfcf793          	andi	a5,s9,-33
   11b96:	f53e                	sd	a5,168(sp)
   11b98:	cf5fe06f          	j	1088c <_vfprintf_r+0x45a>
   11b9c:	11bc                	addi	a5,sp,232
   11b9e:	8776                	mv	a4,t4
   11ba0:	468d                	li	a3,3
   11ba2:	85fe                	mv	a1,t6
   11ba4:	0f810893          	addi	a7,sp,248
   11ba8:	0ec10813          	addi	a6,sp,236
   11bac:	8662                	mv	a2,s8
   11bae:	8556                	mv	a0,s5
   11bb0:	fc1a                	sd	t1,56(sp)
   11bb2:	f476                	sd	t4,40(sp)
   11bb4:	ec7e                	sd	t6,24(sp)
   11bb6:	31c040ef          	jal	ra,15ed2 <_ldtoa_r>
   11bba:	00054683          	lbu	a3,0(a0)
   11bbe:	03000793          	li	a5,48
   11bc2:	8d2a                	mv	s10,a0
   11bc4:	6fe2                	ld	t6,24(sp)
   11bc6:	7ea2                	ld	t4,40(sp)
   11bc8:	7362                	ld	t1,56(sp)
   11bca:	0ef69563          	bne	a3,a5,11cb4 <_vfprintf_r+0x1882>
   11bce:	857e                	mv	a0,t6
   11bd0:	4601                	li	a2,0
   11bd2:	4681                	li	a3,0
   11bd4:	85e2                	mv	a1,s8
   11bd6:	fc1a                	sd	t1,56(sp)
   11bd8:	f476                	sd	t4,40(sp)
   11bda:	ec7e                	sd	t6,24(sp)
   11bdc:	0d00f0ef          	jal	ra,20cac <__eqtf2>
   11be0:	6fe2                	ld	t6,24(sp)
   11be2:	7ea2                	ld	t4,40(sp)
   11be4:	7362                	ld	t1,56(sp)
   11be6:	c579                	beqz	a0,11cb4 <_vfprintf_r+0x1882>
   11be8:	4685                	li	a3,1
   11bea:	41d687bb          	subw	a5,a3,t4
   11bee:	d5be                	sw	a5,232(sp)
   11bf0:	01d789b3          	add	s3,a5,t4
   11bf4:	99ea                	add	s3,s3,s10
   11bf6:	4601                	li	a2,0
   11bf8:	4681                	li	a3,0
   11bfa:	857e                	mv	a0,t6
   11bfc:	85e2                	mv	a1,s8
   11bfe:	f41a                	sd	t1,40(sp)
   11c00:	ec76                	sd	t4,24(sp)
   11c02:	0aa0f0ef          	jal	ra,20cac <__eqtf2>
   11c06:	87ce                	mv	a5,s3
   11c08:	6ee2                	ld	t4,24(sp)
   11c0a:	7322                	ld	t1,40(sp)
   11c0c:	e119                	bnez	a0,11c12 <_vfprintf_r+0x17e0>
   11c0e:	c59fe06f          	j	10866 <_vfprintf_r+0x434>
   11c12:	77ee                	ld	a5,248(sp)
   11c14:	03000613          	li	a2,48
   11c18:	0137e463          	bltu	a5,s3,11c20 <_vfprintf_r+0x17ee>
   11c1c:	c4bfe06f          	j	10866 <_vfprintf_r+0x434>
   11c20:	00178693          	addi	a3,a5,1
   11c24:	fdb6                	sd	a3,248(sp)
   11c26:	00c78023          	sb	a2,0(a5)
   11c2a:	77ee                	ld	a5,248(sp)
   11c2c:	ff37eae3          	bltu	a5,s3,11c20 <_vfprintf_r+0x17ee>
   11c30:	c37fe06f          	j	10866 <_vfprintf_r+0x434>
   11c34:	77a2                	ld	a5,40(sp)
   11c36:	7706                	ld	a4,96(sp)
   11c38:	0ef74c63          	blt	a4,a5,11d30 <_vfprintf_r+0x18fe>
   11c3c:	77ca                	ld	a5,176(sp)
   11c3e:	8c3a                	mv	s8,a4
   11c40:	8b85                	andi	a5,a5,1
   11c42:	c781                	beqz	a5,11c4a <_vfprintf_r+0x1818>
   11c44:	77e6                	ld	a5,120(sp)
   11c46:	00e78c3b          	addw	s8,a5,a4
   11c4a:	77ca                	ld	a5,176(sp)
   11c4c:	4007f793          	andi	a5,a5,1024
   11c50:	c781                	beqz	a5,11c58 <_vfprintf_r+0x1826>
   11c52:	7786                	ld	a5,96(sp)
   11c54:	26f04863          	bgtz	a5,11ec4 <_vfprintf_r+0x1a92>
   11c58:	fffc4993          	not	s3,s8
   11c5c:	43f9d993          	srai	s3,s3,0x3f
   11c60:	013c79b3          	and	s3,s8,s3
   11c64:	2981                	sext.w	s3,s3
   11c66:	06700c93          	li	s9,103
   11c6a:	ec82                	sd	zero,88(sp)
   11c6c:	f482                	sd	zero,104(sp)
   11c6e:	d05fe06f          	j	10972 <_vfprintf_r+0x540>
   11c72:	0df14783          	lbu	a5,223(sp)
   11c76:	4e81                	li	t4,0
   11c78:	c399                	beqz	a5,11c7e <_vfprintf_r+0x184c>
   11c7a:	a61fe06f          	j	106da <_vfprintf_r+0x2a8>
   11c7e:	eeffe06f          	j	10b6c <_vfprintf_r+0x73a>
   11c82:	f002                	sd	zero,32(sp)
   11c84:	843e                	mv	s0,a5
   11c86:	57fd                	li	a5,-1
   11c88:	17fe                	slli	a5,a5,0x3f
   11c8a:	00fc4c33          	xor	s8,s8,a5
   11c8e:	02d00793          	li	a5,45
   11c92:	e5be                	sd	a5,200(sp)
   11c94:	b3bd                	j	11a02 <_vfprintf_r+0x15d0>
   11c96:	0a10                	addi	a2,sp,272
   11c98:	85d2                	mv	a1,s4
   11c9a:	8556                	mv	a0,s5
   11c9c:	7d60a0ef          	jal	ra,1c472 <__sprint_r>
   11ca0:	c119                	beqz	a0,11ca6 <_vfprintf_r+0x1874>
   11ca2:	95ffe06f          	j	10600 <_vfprintf_r+0x1ce>
   11ca6:	77c6                	ld	a5,112(sp)
   11ca8:	835a                	mv	t1,s6
   11caa:	0007c603          	lbu	a2,0(a5)
   11cae:	7792                	ld	a5,288(sp)
   11cb0:	9c32                	add	s8,s8,a2
   11cb2:	b6bd                	j	11820 <_vfprintf_r+0x13ee>
   11cb4:	57ae                	lw	a5,232(sp)
   11cb6:	01d789b3          	add	s3,a5,t4
   11cba:	bf2d                	j	11bf4 <_vfprintf_r+0x17c2>
   11cbc:	0a10                	addi	a2,sp,272
   11cbe:	85d2                	mv	a1,s4
   11cc0:	8556                	mv	a0,s5
   11cc2:	7b00a0ef          	jal	ra,1c472 <__sprint_r>
   11cc6:	c119                	beqz	a0,11ccc <_vfprintf_r+0x189a>
   11cc8:	939fe06f          	j	10600 <_vfprintf_r+0x1ce>
   11ccc:	56ae                	lw	a3,232(sp)
   11cce:	7792                	ld	a5,288(sp)
   11cd0:	835a                	mv	t1,s6
   11cd2:	eacff06f          	j	1137e <_vfprintf_r+0xf4c>
   11cd6:	02d00793          	li	a5,45
   11cda:	0cf10fa3          	sb	a5,223(sp)
   11cde:	ba79                	j	1167c <_vfprintf_r+0x124a>
   11ce0:	0df14783          	lbu	a5,223(sp)
   11ce4:	e836                	sd	a3,16(sp)
   11ce6:	ec82                	sd	zero,88(sp)
   11ce8:	f482                	sd	zero,104(sp)
   11cea:	f082                	sd	zero,96(sp)
   11cec:	89f6                	mv	s3,t4
   11cee:	8c76                	mv	s8,t4
   11cf0:	4e81                	li	t4,0
   11cf2:	c399                	beqz	a5,11cf8 <_vfprintf_r+0x18c6>
   11cf4:	9e7fe06f          	j	106da <_vfprintf_r+0x2a8>
   11cf8:	e75fe06f          	j	10b6c <_vfprintf_r+0x73a>
   11cfc:	77ca                	ld	a5,176(sp)
   11cfe:	7706                	ld	a4,96(sp)
   11d00:	8b85                	andi	a5,a5,1
   11d02:	00fee7b3          	or	a5,t4,a5
   11d06:	2781                	sext.w	a5,a5
   11d08:	2ce05163          	blez	a4,11fca <_vfprintf_r+0x1b98>
   11d0c:	22079263          	bnez	a5,11f30 <_vfprintf_r+0x1afe>
   11d10:	7c06                	ld	s8,96(sp)
   11d12:	06600c93          	li	s9,102
   11d16:	77ca                	ld	a5,176(sp)
   11d18:	4007f793          	andi	a5,a5,1024
   11d1c:	1a079663          	bnez	a5,11ec8 <_vfprintf_r+0x1a96>
   11d20:	fffc4993          	not	s3,s8
   11d24:	43f9d993          	srai	s3,s3,0x3f
   11d28:	013c79b3          	and	s3,s8,s3
   11d2c:	2981                	sext.w	s3,s3
   11d2e:	bf35                	j	11c6a <_vfprintf_r+0x1838>
   11d30:	7722                	ld	a4,40(sp)
   11d32:	77e6                	ld	a5,120(sp)
   11d34:	06700c93          	li	s9,103
   11d38:	00e78c3b          	addw	s8,a5,a4
   11d3c:	7706                	ld	a4,96(sp)
   11d3e:	fce04ce3          	bgtz	a4,11d16 <_vfprintf_r+0x18e4>
   11d42:	40ec07bb          	subw	a5,s8,a4
   11d46:	2785                	addiw	a5,a5,1
   11d48:	00078c1b          	sext.w	s8,a5
   11d4c:	fffc4993          	not	s3,s8
   11d50:	43f9d993          	srai	s3,s3,0x3f
   11d54:	0137f7b3          	and	a5,a5,s3
   11d58:	0007899b          	sext.w	s3,a5
   11d5c:	b739                	j	11c6a <_vfprintf_r+0x1838>
   11d5e:	0a10                	addi	a2,sp,272
   11d60:	85d2                	mv	a1,s4
   11d62:	8556                	mv	a0,s5
   11d64:	70e0a0ef          	jal	ra,1c472 <__sprint_r>
   11d68:	c119                	beqz	a0,11d6e <_vfprintf_r+0x193c>
   11d6a:	897fe06f          	j	10600 <_vfprintf_r+0x1ce>
   11d6e:	562e                	lw	a2,232(sp)
   11d70:	7722                	ld	a4,40(sp)
   11d72:	7792                	ld	a5,288(sp)
   11d74:	835a                	mv	t1,s6
   11d76:	40c7063b          	subw	a2,a4,a2
   11d7a:	e40ff06f          	j	113ba <_vfprintf_r+0xf88>
   11d7e:	57fd                	li	a5,-1
   11d80:	e43e                	sd	a5,8(sp)
   11d82:	899fe06f          	j	1061a <_vfprintf_r+0x1e8>
   11d86:	5641                	li	a2,-16
   11d88:	40b00c3b          	negw	s8,a1
   11d8c:	04c5d063          	bge	a1,a2,11dcc <_vfprintf_r+0x199a>
   11d90:	4c9d                	li	s9,7
   11d92:	a021                	j	11d9a <_vfprintf_r+0x1968>
   11d94:	3c41                	addiw	s8,s8,-16
   11d96:	038ddb63          	bge	s11,s8,11dcc <_vfprintf_r+0x199a>
   11d9a:	2685                	addiw	a3,a3,1
   11d9c:	07c1                	addi	a5,a5,16
   11d9e:	01233023          	sd	s2,0(t1)
   11da2:	01b33423          	sd	s11,8(t1)
   11da6:	f23e                	sd	a5,288(sp)
   11da8:	10d12c23          	sw	a3,280(sp)
   11dac:	0341                	addi	t1,t1,16
   11dae:	fedcd3e3          	bge	s9,a3,11d94 <_vfprintf_r+0x1962>
   11db2:	0a10                	addi	a2,sp,272
   11db4:	85d2                	mv	a1,s4
   11db6:	8556                	mv	a0,s5
   11db8:	6ba0a0ef          	jal	ra,1c472 <__sprint_r>
   11dbc:	c119                	beqz	a0,11dc2 <_vfprintf_r+0x1990>
   11dbe:	843fe06f          	j	10600 <_vfprintf_r+0x1ce>
   11dc2:	7792                	ld	a5,288(sp)
   11dc4:	11812683          	lw	a3,280(sp)
   11dc8:	835a                	mv	t1,s6
   11dca:	b7e9                	j	11d94 <_vfprintf_r+0x1962>
   11dcc:	2685                	addiw	a3,a3,1
   11dce:	97e2                	add	a5,a5,s8
   11dd0:	01233023          	sd	s2,0(t1)
   11dd4:	01833423          	sd	s8,8(t1)
   11dd8:	f23e                	sd	a5,288(sp)
   11dda:	10d12c23          	sw	a3,280(sp)
   11dde:	461d                	li	a2,7
   11de0:	84d65de3          	bge	a2,a3,1163a <_vfprintf_r+0x1208>
   11de4:	0a10                	addi	a2,sp,272
   11de6:	85d2                	mv	a1,s4
   11de8:	8556                	mv	a0,s5
   11dea:	6880a0ef          	jal	ra,1c472 <__sprint_r>
   11dee:	c119                	beqz	a0,11df4 <_vfprintf_r+0x19c2>
   11df0:	811fe06f          	j	10600 <_vfprintf_r+0x1ce>
   11df4:	7792                	ld	a5,288(sp)
   11df6:	11812683          	lw	a3,280(sp)
   11dfa:	835a                	mv	t1,s6
   11dfc:	ed1fe06f          	j	10ccc <_vfprintf_r+0x89a>
   11e00:	001e859b          	addiw	a1,t4,1
   11e04:	8556                	mv	a0,s5
   11e06:	f01a                	sd	t1,32(sp)
   11e08:	ec76                	sd	t4,24(sp)
   11e0a:	196050ef          	jal	ra,16fa0 <_malloc_r>
   11e0e:	8d2a                	mv	s10,a0
   11e10:	6ee2                	ld	t4,24(sp)
   11e12:	7302                	ld	t1,32(sp)
   11e14:	1e050f63          	beqz	a0,12012 <_vfprintf_r+0x1be0>
   11e18:	f02a                	sd	a0,32(sp)
   11e1a:	bec9                	j	119ec <_vfprintf_r+0x15ba>
   11e1c:	03000793          	li	a5,48
   11e20:	0ef10023          	sb	a5,224(sp)
   11e24:	07800713          	li	a4,120
   11e28:	b66d                	j	119d2 <_vfprintf_r+0x15a0>
   11e2a:	6762                	ld	a4,24(sp)
   11e2c:	86be                	mv	a3,a5
   11e2e:	fdba                	sd	a4,248(sp)
   11e30:	7706                	ld	a4,96(sp)
   11e32:	fff7c603          	lbu	a2,-1(a5)
   11e36:	00f74583          	lbu	a1,15(a4)
   11e3a:	00c59e63          	bne	a1,a2,11e56 <_vfprintf_r+0x1a24>
   11e3e:	03000513          	li	a0,48
   11e42:	fea68fa3          	sb	a0,-1(a3)
   11e46:	76ee                	ld	a3,248(sp)
   11e48:	fff68613          	addi	a2,a3,-1
   11e4c:	fdb2                	sd	a2,248(sp)
   11e4e:	fff6c603          	lbu	a2,-1(a3)
   11e52:	fec588e3          	beq	a1,a2,11e42 <_vfprintf_r+0x1a10>
   11e56:	0016059b          	addiw	a1,a2,1
   11e5a:	03900513          	li	a0,57
   11e5e:	0ff5f593          	andi	a1,a1,255
   11e62:	00a60663          	beq	a2,a0,11e6e <_vfprintf_r+0x1a3c>
   11e66:	feb68fa3          	sb	a1,-1(a3)
   11e6a:	9fdfe06f          	j	10866 <_vfprintf_r+0x434>
   11e6e:	7706                	ld	a4,96(sp)
   11e70:	00a74583          	lbu	a1,10(a4)
   11e74:	feb68fa3          	sb	a1,-1(a3)
   11e78:	9effe06f          	j	10866 <_vfprintf_r+0x434>
   11e7c:	001e899b          	addiw	s3,t4,1
   11e80:	874e                	mv	a4,s3
   11e82:	85fe                	mv	a1,t6
   11e84:	0f810893          	addi	a7,sp,248
   11e88:	0ec10813          	addi	a6,sp,236
   11e8c:	11bc                	addi	a5,sp,232
   11e8e:	4689                	li	a3,2
   11e90:	8662                	mv	a2,s8
   11e92:	8556                	mv	a0,s5
   11e94:	f476                	sd	t4,40(sp)
   11e96:	ec7e                	sd	t6,24(sp)
   11e98:	03a040ef          	jal	ra,15ed2 <_ldtoa_r>
   11e9c:	8d2a                	mv	s10,a0
   11e9e:	6fe2                	ld	t6,24(sp)
   11ea0:	7ea2                	ld	t4,40(sp)
   11ea2:	7362                	ld	t1,56(sp)
   11ea4:	99ea                	add	s3,s3,s10
   11ea6:	bb81                	j	11bf6 <_vfprintf_r+0x17c4>
   11ea8:	000e8463          	beqz	t4,11eb0 <_vfprintf_r+0x1a7e>
   11eac:	943fe06f          	j	107ee <_vfprintf_r+0x3bc>
   11eb0:	4e85                	li	t4,1
   11eb2:	93dfe06f          	j	107ee <_vfprintf_r+0x3bc>
   11eb6:	c31c                	sw	a5,0(a4)
   11eb8:	8d26                	mv	s10,s1
   11eba:	d95fe06f          	j	10c4e <_vfprintf_r+0x81c>
   11ebe:	4e99                	li	t4,6
   11ec0:	92ffe06f          	j	107ee <_vfprintf_r+0x3bc>
   11ec4:	06700c93          	li	s9,103
   11ec8:	77c6                	ld	a5,112(sp)
   11eca:	ec82                	sd	zero,88(sp)
   11ecc:	f482                	sd	zero,104(sp)
   11ece:	0007c783          	lbu	a5,0(a5)
   11ed2:	0ff00593          	li	a1,255
   11ed6:	02b78963          	beq	a5,a1,11f08 <_vfprintf_r+0x1ad6>
   11eda:	7706                	ld	a4,96(sp)
   11edc:	0007869b          	sext.w	a3,a5
   11ee0:	02e6d463          	bge	a3,a4,11f08 <_vfprintf_r+0x1ad6>
   11ee4:	7546                	ld	a0,112(sp)
   11ee6:	9f15                	subw	a4,a4,a3
   11ee8:	f0ba                	sd	a4,96(sp)
   11eea:	00154603          	lbu	a2,1(a0)
   11eee:	ca09                	beqz	a2,11f00 <_vfprintf_r+0x1ace>
   11ef0:	77a6                	ld	a5,104(sp)
   11ef2:	2785                	addiw	a5,a5,1
   11ef4:	f4be                	sd	a5,104(sp)
   11ef6:	00150793          	addi	a5,a0,1
   11efa:	f8be                	sd	a5,112(sp)
   11efc:	87b2                	mv	a5,a2
   11efe:	bfe1                	j	11ed6 <_vfprintf_r+0x1aa4>
   11f00:	6766                	ld	a4,88(sp)
   11f02:	2705                	addiw	a4,a4,1
   11f04:	ecba                	sd	a4,88(sp)
   11f06:	bfc1                	j	11ed6 <_vfprintf_r+0x1aa4>
   11f08:	6766                	ld	a4,88(sp)
   11f0a:	77a6                	ld	a5,104(sp)
   11f0c:	9fb9                	addw	a5,a5,a4
   11f0e:	672a                	ld	a4,136(sp)
   11f10:	02e787bb          	mulw	a5,a5,a4
   11f14:	018787bb          	addw	a5,a5,s8
   11f18:	00078c1b          	sext.w	s8,a5
   11f1c:	fffc4993          	not	s3,s8
   11f20:	43f9d993          	srai	s3,s3,0x3f
   11f24:	0137f7b3          	and	a5,a5,s3
   11f28:	0007899b          	sext.w	s3,a5
   11f2c:	a47fe06f          	j	10972 <_vfprintf_r+0x540>
   11f30:	77e6                	ld	a5,120(sp)
   11f32:	06600c93          	li	s9,102
   11f36:	00e78c3b          	addw	s8,a5,a4
   11f3a:	01dc0c3b          	addw	s8,s8,t4
   11f3e:	bbe1                	j	11d16 <_vfprintf_r+0x18e4>
   11f40:	857e                	mv	a0,t6
   11f42:	85e2                	mv	a1,s8
   11f44:	fc1a                	sd	t1,56(sp)
   11f46:	f476                	sd	t4,40(sp)
   11f48:	72f0f0ef          	jal	ra,21e76 <__trunctfdf2>
   11f4c:	11a8                	addi	a0,sp,232
   11f4e:	315060ef          	jal	ra,18a62 <frexp>
   11f52:	6610f0ef          	jal	ra,21db2 <__extenddftf2>
   11f56:	00010797          	auipc	a5,0x10
   11f5a:	3ba78793          	addi	a5,a5,954 # 22310 <zeroes.4541+0x38>
   11f5e:	6794                	ld	a3,8(a5)
   11f60:	4601                	li	a2,0
   11f62:	7430e0ef          	jal	ra,20ea4 <__multf3>
   11f66:	4601                	li	a2,0
   11f68:	4681                	li	a3,0
   11f6a:	8c2a                	mv	s8,a0
   11f6c:	ec2e                	sd	a1,24(sp)
   11f6e:	53f0e0ef          	jal	ra,20cac <__eqtf2>
   11f72:	62e2                	ld	t0,24(sp)
   11f74:	7ea2                	ld	t4,40(sp)
   11f76:	7362                	ld	t1,56(sp)
   11f78:	e119                	bnez	a0,11f7e <_vfprintf_r+0x1b4c>
   11f7a:	4785                	li	a5,1
   11f7c:	d5be                	sw	a5,232(sp)
   11f7e:	00010797          	auipc	a5,0x10
   11f82:	3c278793          	addi	a5,a5,962 # 22340 <zeroes.4541+0x68>
   11f86:	f0be                	sd	a5,96(sp)
   11f88:	bcd9                	j	11a5e <_vfprintf_r+0x162c>
   11f8a:	0f210693          	addi	a3,sp,242
   11f8e:	e619                	bnez	a2,11f9c <_vfprintf_r+0x1b6a>
   11f90:	03000693          	li	a3,48
   11f94:	0ed10923          	sb	a3,242(sp)
   11f98:	0f310693          	addi	a3,sp,243
   11f9c:	0c18                	addi	a4,sp,528
   11f9e:	0307879b          	addiw	a5,a5,48
   11fa2:	40e68633          	sub	a2,a3,a4
   11fa6:	00f68023          	sb	a5,0(a3)
   11faa:	1216079b          	addiw	a5,a2,289
   11fae:	e93e                	sd	a5,144(sp)
   11fb0:	989fe06f          	j	10938 <_vfprintf_r+0x506>
   11fb4:	774a                	ld	a4,176(sp)
   11fb6:	00177693          	andi	a3,a4,1
   11fba:	e299                	bnez	a3,11fc0 <_vfprintf_r+0x1b8e>
   11fbc:	997fe06f          	j	10952 <_vfprintf_r+0x520>
   11fc0:	98dfe06f          	j	1094c <_vfprintf_r+0x51a>
   11fc4:	871a                	mv	a4,t1
   11fc6:	d10ff06f          	j	114d6 <_vfprintf_r+0x10a4>
   11fca:	e791                	bnez	a5,11fd6 <_vfprintf_r+0x1ba4>
   11fcc:	4985                	li	s3,1
   11fce:	06600c93          	li	s9,102
   11fd2:	4c05                	li	s8,1
   11fd4:	b959                	j	11c6a <_vfprintf_r+0x1838>
   11fd6:	77e6                	ld	a5,120(sp)
   11fd8:	06600c93          	li	s9,102
   11fdc:	2785                	addiw	a5,a5,1
   11fde:	01d78ebb          	addw	t4,a5,t4
   11fe2:	000e8c1b          	sext.w	s8,t4
   11fe6:	fffc4993          	not	s3,s8
   11fea:	43f9d993          	srai	s3,s3,0x3f
   11fee:	013efeb3          	and	t4,t4,s3
   11ff2:	000e899b          	sext.w	s3,t4
   11ff6:	b995                	j	11c6a <_vfprintf_r+0x1838>
   11ff8:	6742                	ld	a4,16(sp)
   11ffa:	00072e83          	lw	t4,0(a4)
   11ffe:	0721                	addi	a4,a4,8
   12000:	000ed363          	bgez	t4,12006 <_vfprintf_r+0x1bd4>
   12004:	5efd                	li	t4,-1
   12006:	0014cf03          	lbu	t5,1(s1)
   1200a:	e83a                	sd	a4,16(sp)
   1200c:	84be                	mv	s1,a5
   1200e:	d64fe06f          	j	10572 <_vfprintf_r+0x140>
   12012:	010a5783          	lhu	a5,16(s4)
   12016:	0407e793          	ori	a5,a5,64
   1201a:	00fa1823          	sh	a5,16(s4)
   1201e:	deefe06f          	j	1060c <_vfprintf_r+0x1da>
   12022:	89f6                	mv	s3,t4
   12024:	99ea                	add	s3,s3,s10
   12026:	bec1                	j	11bf6 <_vfprintf_r+0x17c4>
   12028:	4789                	li	a5,2
   1202a:	e93e                	sd	a5,144(sp)
   1202c:	90dfe06f          	j	10938 <_vfprintf_r+0x506>

0000000000012030 <vfprintf>:
   12030:	75018793          	addi	a5,gp,1872 # 257d8 <_impure_ptr>
   12034:	86b2                	mv	a3,a2
   12036:	862e                	mv	a2,a1
   12038:	85aa                	mv	a1,a0
   1203a:	6388                	ld	a0,0(a5)
   1203c:	bf6fe06f          	j	10432 <_vfprintf_r>

0000000000012040 <__sbprintf>:
   12040:	0105d783          	lhu	a5,16(a1)
   12044:	0ac5ae03          	lw	t3,172(a1)
   12048:	0125d303          	lhu	t1,18(a1)
   1204c:	0305b883          	ld	a7,48(a1)
   12050:	0405b803          	ld	a6,64(a1)
   12054:	b3010113          	addi	sp,sp,-1232
   12058:	9bf5                	andi	a5,a5,-3
   1205a:	40000713          	li	a4,1024
   1205e:	4c813023          	sd	s0,1216(sp)
   12062:	00f11823          	sh	a5,16(sp)
   12066:	842e                	mv	s0,a1
   12068:	191c                	addi	a5,sp,176
   1206a:	858a                	mv	a1,sp
   1206c:	4a913c23          	sd	s1,1208(sp)
   12070:	4b213823          	sd	s2,1200(sp)
   12074:	4c113423          	sd	ra,1224(sp)
   12078:	892a                	mv	s2,a0
   1207a:	d772                	sw	t3,172(sp)
   1207c:	00611923          	sh	t1,18(sp)
   12080:	f846                	sd	a7,48(sp)
   12082:	e0c2                	sd	a6,64(sp)
   12084:	e03e                	sd	a5,0(sp)
   12086:	ec3e                	sd	a5,24(sp)
   12088:	c63a                	sw	a4,12(sp)
   1208a:	d03a                	sw	a4,32(sp)
   1208c:	d402                	sw	zero,40(sp)
   1208e:	ba4fe0ef          	jal	ra,10432 <_vfprintf_r>
   12092:	84aa                	mv	s1,a0
   12094:	02055963          	bgez	a0,120c6 <__sbprintf+0x86>
   12098:	01015783          	lhu	a5,16(sp)
   1209c:	0407f793          	andi	a5,a5,64
   120a0:	c799                	beqz	a5,120ae <__sbprintf+0x6e>
   120a2:	01045783          	lhu	a5,16(s0)
   120a6:	0407e793          	ori	a5,a5,64
   120aa:	00f41823          	sh	a5,16(s0)
   120ae:	4c813083          	ld	ra,1224(sp)
   120b2:	4c013403          	ld	s0,1216(sp)
   120b6:	8526                	mv	a0,s1
   120b8:	4b013903          	ld	s2,1200(sp)
   120bc:	4b813483          	ld	s1,1208(sp)
   120c0:	4d010113          	addi	sp,sp,1232
   120c4:	8082                	ret
   120c6:	858a                	mv	a1,sp
   120c8:	854a                	mv	a0,s2
   120ca:	392020ef          	jal	ra,1445c <_fflush_r>
   120ce:	d569                	beqz	a0,12098 <__sbprintf+0x58>
   120d0:	54fd                	li	s1,-1
   120d2:	b7d9                	j	12098 <__sbprintf+0x58>

00000000000120d4 <__svfscanf_r>:
   120d4:	a8010113          	addi	sp,sp,-1408
   120d8:	56813823          	sd	s0,1392(sp)
   120dc:	57213023          	sd	s2,1376(sp)
   120e0:	55313c23          	sd	s3,1368(sp)
   120e4:	55513423          	sd	s5,1352(sp)
   120e8:	51b13c23          	sd	s11,1304(sp)
   120ec:	56113c23          	sd	ra,1400(sp)
   120f0:	56913423          	sd	s1,1384(sp)
   120f4:	55413823          	sd	s4,1360(sp)
   120f8:	55613023          	sd	s6,1344(sp)
   120fc:	53713c23          	sd	s7,1336(sp)
   12100:	53813823          	sd	s8,1328(sp)
   12104:	53913423          	sd	s9,1320(sp)
   12108:	53a13023          	sd	s10,1312(sp)
   1210c:	58010413          	addi	s0,sp,1408
   12110:	01059703          	lh	a4,16(a1)
   12114:	737d                	lui	t1,0xfffff
   12116:	911a                	add	sp,sp,t1
   12118:	03271793          	slli	a5,a4,0x32
   1211c:	8dae                	mv	s11,a1
   1211e:	89aa                	mv	s3,a0
   12120:	8932                	mv	s2,a2
   12122:	8ab6                	mv	s5,a3
   12124:	0007cd63          	bltz	a5,1213e <__svfscanf_r+0x6a>
   12128:	0ac5a683          	lw	a3,172(a1)
   1212c:	6609                	lui	a2,0x2
   1212e:	8f51                	or	a4,a4,a2
   12130:	7679                	lui	a2,0xffffe
   12132:	167d                	addi	a2,a2,-1
   12134:	8ef1                	and	a3,a3,a2
   12136:	00e59823          	sh	a4,16(a1)
   1213a:	0ad5a623          	sw	a3,172(a1)
   1213e:	777d                	lui	a4,0xfffff
   12140:	c9070713          	addi	a4,a4,-880 # ffffffffffffec90 <__BSS_END__+0xfffffffffffd9408>
   12144:	f9040793          	addi	a5,s0,-112
   12148:	97ba                	add	a5,a5,a4
   1214a:	777d                	lui	a4,0xfffff
   1214c:	af870713          	addi	a4,a4,-1288 # ffffffffffffeaf8 <__BSS_END__+0xfffffffffffd9270>
   12150:	76fd                	lui	a3,0xfffff
   12152:	9722                	add	a4,a4,s0
   12154:	a9868693          	addi	a3,a3,-1384 # ffffffffffffea98 <__BSS_END__+0xfffffffffffd9210>
   12158:	e31c                	sd	a5,0(a4)
   1215a:	96a2                	add	a3,a3,s0
   1215c:	fff78713          	addi	a4,a5,-1
   12160:	e298                	sd	a4,0(a3)
   12162:	76fd                	lui	a3,0xfffff
   12164:	ac868693          	addi	a3,a3,-1336 # ffffffffffffeac8 <__BSS_END__+0xfffffffffffd9240>
   12168:	96a2                	add	a3,a3,s0
   1216a:	0006b023          	sd	zero,0(a3)
   1216e:	76fd                	lui	a3,0xfffff
   12170:	ae068693          	addi	a3,a3,-1312 # ffffffffffffeae0 <__BSS_END__+0xfffffffffffd9258>
   12174:	96a2                	add	a3,a3,s0
   12176:	0006b023          	sd	zero,0(a3)
   1217a:	76fd                	lui	a3,0xfffff
   1217c:	ae868693          	addi	a3,a3,-1304 # ffffffffffffeae8 <__BSS_END__+0xfffffffffffd9260>
   12180:	96a2                	add	a3,a3,s0
   12182:	0006b023          	sd	zero,0(a3)
   12186:	76fd                	lui	a3,0xfffff
   12188:	ad868693          	addi	a3,a3,-1320 # ffffffffffffead8 <__BSS_END__+0xfffffffffffd9250>
   1218c:	96a2                	add	a3,a3,s0
   1218e:	0006b023          	sd	zero,0(a3)
   12192:	76fd                	lui	a3,0xfffff
   12194:	a9068693          	addi	a3,a3,-1392 # ffffffffffffea90 <__BSS_END__+0xfffffffffffd9208>
   12198:	96a2                	add	a3,a3,s0
   1219a:	e29c                	sd	a5,0(a3)
   1219c:	77fd                	lui	a5,0xfffff
   1219e:	a8878793          	addi	a5,a5,-1400 # ffffffffffffea88 <__BSS_END__+0xfffffffffffd9200>
   121a2:	97a2                	add	a5,a5,s0
   121a4:	4481                	li	s1,0
   121a6:	4a01                	li	s4,0
   121a8:	e398                	sd	a4,0(a5)
   121aa:	00094703          	lbu	a4,0(s2)
   121ae:	f9040793          	addi	a5,s0,-112
   121b2:	76fd                	lui	a3,0xfffff
   121b4:	96be                	add	a3,a3,a5
   121b6:	0007061b          	sext.w	a2,a4
   121ba:	b6c6ae23          	sw	a2,-1156(a3) # ffffffffffffeb7c <__BSS_END__+0xfffffffffffd92f4>
   121be:	00190b93          	addi	s7,s2,1
   121c2:	12060863          	beqz	a2,122f2 <__svfscanf_r+0x21e>
   121c6:	00010c17          	auipc	s8,0x10
   121ca:	5bbc0c13          	addi	s8,s8,1467 # 22781 <_ctype_+0x1>
   121ce:	9762                	add	a4,a4,s8
   121d0:	00074683          	lbu	a3,0(a4)
   121d4:	0086fd13          	andi	s10,a3,8
   121d8:	120d1b63          	bnez	s10,1230e <__svfscanf_r+0x23a>
   121dc:	02500713          	li	a4,37
   121e0:	0ce61463          	bne	a2,a4,122a8 <__svfscanf_r+0x1d4>
   121e4:	00194583          	lbu	a1,1(s2)
   121e8:	4c81                	li	s9,0
   121ea:	4b01                	li	s6,0
   121ec:	05500513          	li	a0,85
   121f0:	00010617          	auipc	a2,0x10
   121f4:	19060613          	addi	a2,a2,400 # 22380 <zeroes.4541+0xa8>
   121f8:	06800e93          	li	t4,104
   121fc:	06c00e13          	li	t3,108
   12200:	fdb5871b          	addiw	a4,a1,-37
   12204:	0ff77713          	andi	a4,a4,255
   12208:	001b8913          	addi	s2,s7,1
   1220c:	02e56763          	bltu	a0,a4,1223a <__svfscanf_r+0x166>
   12210:	070a                	slli	a4,a4,0x2
   12212:	9732                	add	a4,a4,a2
   12214:	4318                	lw	a4,0(a4)
   12216:	9732                	add	a4,a4,a2
   12218:	8702                	jr	a4
   1221a:	00fcf713          	andi	a4,s9,15
   1221e:	eb71                	bnez	a4,122f2 <__svfscanf_r+0x21e>
   12220:	001bc583          	lbu	a1,1(s7)
   12224:	fdb5871b          	addiw	a4,a1,-37
   12228:	8bca                	mv	s7,s2
   1222a:	0ff77713          	andi	a4,a4,255
   1222e:	001cec93          	ori	s9,s9,1
   12232:	001b8913          	addi	s2,s7,1
   12236:	fce57de3          	bgeu	a0,a4,12210 <__svfscanf_r+0x13c>
   1223a:	77fd                	lui	a5,0xfffff
   1223c:	ae078793          	addi	a5,a5,-1312 # ffffffffffffeae0 <__BSS_END__+0xfffffffffffd9258>
   12240:	97a2                	add	a5,a5,s0
   12242:	639c                	ld	a5,0(a5)
   12244:	cb81                	beqz	a5,12254 <__svfscanf_r+0x180>
   12246:	0007ba83          	ld	s5,0(a5)
   1224a:	000a8563          	beqz	s5,12254 <__svfscanf_r+0x180>
   1224e:	8556                	mv	a0,s5
   12250:	545040ef          	jal	ra,16f94 <free>
   12254:	77fd                	lui	a5,0xfffff
   12256:	ad878793          	addi	a5,a5,-1320 # ffffffffffffead8 <__BSS_END__+0xfffffffffffd9250>
   1225a:	737d                	lui	t1,0xfffff
   1225c:	97a2                	add	a5,a5,s0
   1225e:	a8030313          	addi	t1,t1,-1408 # ffffffffffffea80 <__BSS_END__+0xfffffffffffd91f8>
   12262:	6388                	ld	a0,0(a5)
   12264:	00640133          	add	sp,s0,t1
   12268:	6305                	lui	t1,0x1
   1226a:	911a                	add	sp,sp,t1
   1226c:	57813083          	ld	ra,1400(sp)
   12270:	57013403          	ld	s0,1392(sp)
   12274:	56813483          	ld	s1,1384(sp)
   12278:	56013903          	ld	s2,1376(sp)
   1227c:	55813983          	ld	s3,1368(sp)
   12280:	55013a03          	ld	s4,1360(sp)
   12284:	54813a83          	ld	s5,1352(sp)
   12288:	54013b03          	ld	s6,1344(sp)
   1228c:	53813b83          	ld	s7,1336(sp)
   12290:	53013c03          	ld	s8,1328(sp)
   12294:	52813c83          	ld	s9,1320(sp)
   12298:	52013d03          	ld	s10,1312(sp)
   1229c:	51813d83          	ld	s11,1304(sp)
   122a0:	58010113          	addi	sp,sp,1408
   122a4:	8082                	ret
   122a6:	8bca                	mv	s7,s2
   122a8:	008da703          	lw	a4,8(s11)
   122ac:	38e059e3          	blez	a4,12e3e <__svfscanf_r+0xd6a>
   122b0:	000db703          	ld	a4,0(s11)
   122b4:	fffbc683          	lbu	a3,-1(s7)
   122b8:	00074603          	lbu	a2,0(a4)
   122bc:	02d61b63          	bne	a2,a3,122f2 <__svfscanf_r+0x21e>
   122c0:	008da683          	lw	a3,8(s11)
   122c4:	0705                	addi	a4,a4,1
   122c6:	00edb023          	sd	a4,0(s11)
   122ca:	fff6871b          	addiw	a4,a3,-1
   122ce:	895e                	mv	s2,s7
   122d0:	00eda423          	sw	a4,8(s11)
   122d4:	00094703          	lbu	a4,0(s2)
   122d8:	f9040793          	addi	a5,s0,-112
   122dc:	76fd                	lui	a3,0xfffff
   122de:	96be                	add	a3,a3,a5
   122e0:	0007061b          	sext.w	a2,a4
   122e4:	b6c6ae23          	sw	a2,-1156(a3) # ffffffffffffeb7c <__BSS_END__+0xfffffffffffd92f4>
   122e8:	2a05                	addiw	s4,s4,1
   122ea:	00190b93          	addi	s7,s2,1
   122ee:	ec061ce3          	bnez	a2,121c6 <__svfscanf_r+0xf2>
   122f2:	77fd                	lui	a5,0xfffff
   122f4:	ae078793          	addi	a5,a5,-1312 # ffffffffffffeae0 <__BSS_END__+0xfffffffffffd9258>
   122f8:	97a2                	add	a5,a5,s0
   122fa:	639c                	ld	a5,0(a5)
   122fc:	dfa1                	beqz	a5,12254 <__svfscanf_r+0x180>
   122fe:	77fd                	lui	a5,0xfffff
   12300:	ae078793          	addi	a5,a5,-1312 # ffffffffffffeae0 <__BSS_END__+0xfffffffffffd9258>
   12304:	97a2                	add	a5,a5,s0
   12306:	639c                	ld	a5,0(a5)
   12308:	0007ba83          	ld	s5,0(a5)
   1230c:	bf3d                	j	1224a <__svfscanf_r+0x176>
   1230e:	008da603          	lw	a2,8(s11)
   12312:	02c05763          	blez	a2,12340 <__svfscanf_r+0x26c>
   12316:	000db703          	ld	a4,0(s11)
   1231a:	00074683          	lbu	a3,0(a4)
   1231e:	96e2                	add	a3,a3,s8
   12320:	0006c683          	lbu	a3,0(a3)
   12324:	8aa1                	andi	a3,a3,8
   12326:	c295                	beqz	a3,1234a <__svfscanf_r+0x276>
   12328:	008da683          	lw	a3,8(s11)
   1232c:	0705                	addi	a4,a4,1
   1232e:	00edb023          	sd	a4,0(s11)
   12332:	fff6861b          	addiw	a2,a3,-1
   12336:	00cda423          	sw	a2,8(s11)
   1233a:	2a05                	addiw	s4,s4,1
   1233c:	fcc04de3          	bgtz	a2,12316 <__svfscanf_r+0x242>
   12340:	85ee                	mv	a1,s11
   12342:	854e                	mv	a0,s3
   12344:	4e0060ef          	jal	ra,18824 <__srefill_r>
   12348:	d579                	beqz	a0,12316 <__svfscanf_r+0x242>
   1234a:	895e                	mv	s2,s7
   1234c:	bdb9                	j	121aa <__svfscanf_r+0xd6>
   1234e:	001cec93          	ori	s9,s9,1
   12352:	777d                	lui	a4,0xfffff
   12354:	ac870713          	addi	a4,a4,-1336 # ffffffffffffeac8 <__BSS_END__+0xfffffffffffd9240>
   12358:	00008797          	auipc	a5,0x8
   1235c:	2ee78793          	addi	a5,a5,750 # 1a646 <_strtoul_r>
   12360:	9722                	add	a4,a4,s0
   12362:	e31c                	sd	a5,0(a4)
   12364:	47a1                	li	a5,8
   12366:	777d                	lui	a4,0xfffff
   12368:	ae870713          	addi	a4,a4,-1304 # ffffffffffffeae8 <__BSS_END__+0xfffffffffffd9260>
   1236c:	9722                	add	a4,a4,s0
   1236e:	e31c                	sd	a5,0(a4)
   12370:	4b8d                	li	s7,3
   12372:	008da703          	lw	a4,8(s11)
   12376:	62e05563          	blez	a4,129a0 <__svfscanf_r+0x8cc>
   1237a:	040cf713          	andi	a4,s9,64
   1237e:	c771                	beqz	a4,1244a <__svfscanf_r+0x376>
   12380:	4709                	li	a4,2
   12382:	10eb8363          	beq	s7,a4,12488 <__svfscanf_r+0x3b4>
   12386:	017753e3          	bge	a4,s7,12b8c <__svfscanf_r+0xab8>
   1238a:	470d                	li	a4,3
   1238c:	2ceb80e3          	beq	s7,a4,12e4c <__svfscanf_r+0xd78>
   12390:	4711                	li	a4,4
   12392:	52eb96e3          	bne	s7,a4,130be <__svfscanf_r+0xfea>
   12396:	854e                	mv	a0,s3
   12398:	23f040ef          	jal	ra,16dd6 <_localeconv_r>
   1239c:	611c                	ld	a5,0(a0)
   1239e:	76fd                	lui	a3,0xfffff
   123a0:	ac068693          	addi	a3,a3,-1344 # ffffffffffffeac0 <__BSS_END__+0xfffffffffffd9238>
   123a4:	96a2                	add	a3,a3,s0
   123a6:	e29c                	sd	a5,0(a3)
   123a8:	77fd                	lui	a5,0xfffff
   123aa:	ab878793          	addi	a5,a5,-1352 # ffffffffffffeab8 <__BSS_END__+0xfffffffffffd9230>
   123ae:	6605                	lui	a2,0x1
   123b0:	97a2                	add	a5,a5,s0
   123b2:	fffb0713          	addi	a4,s6,-1
   123b6:	36c60593          	addi	a1,a2,876 # 136c <register_fini-0xed44>
   123ba:	0007b023          	sd	zero,0(a5)
   123be:	00e5fe63          	bgeu	a1,a4,123da <__svfscanf_r+0x306>
   123c2:	777d                	lui	a4,0xfffff
   123c4:	c937071b          	addiw	a4,a4,-877
   123c8:	016707bb          	addw	a5,a4,s6
   123cc:	777d                	lui	a4,0xfffff
   123ce:	ab870713          	addi	a4,a4,-1352 # ffffffffffffeab8 <__BSS_END__+0xfffffffffffd9230>
   123d2:	9722                	add	a4,a4,s0
   123d4:	e31c                	sd	a5,0(a4)
   123d6:	36d60b13          	addi	s6,a2,877
   123da:	77fd                	lui	a5,0xfffff
   123dc:	aa878793          	addi	a5,a5,-1368 # ffffffffffffeaa8 <__BSS_END__+0xfffffffffffd9220>
   123e0:	97a2                	add	a5,a5,s0
   123e2:	0007b023          	sd	zero,0(a5)
   123e6:	77fd                	lui	a5,0xfffff
   123e8:	ab078793          	addi	a5,a5,-1360 # ffffffffffffeab0 <__BSS_END__+0xfffffffffffd9228>
   123ec:	97a2                	add	a5,a5,s0
   123ee:	0007b023          	sd	zero,0(a5)
   123f2:	77fd                	lui	a5,0xfffff
   123f4:	ad078793          	addi	a5,a5,-1328 # ffffffffffffead0 <__BSS_END__+0xfffffffffffd9248>
   123f8:	97a2                	add	a5,a5,s0
   123fa:	777d                	lui	a4,0xfffff
   123fc:	0007b023          	sd	zero,0(a5)
   12400:	c9070713          	addi	a4,a4,-880 # ffffffffffffec90 <__BSS_END__+0xfffffffffffd9408>
   12404:	f9040793          	addi	a5,s0,-112
   12408:	780cec13          	ori	s8,s9,1920
   1240c:	4f01                	li	t5,0
   1240e:	4b81                	li	s7,0
   12410:	00e78cb3          	add	s9,a5,a4
   12414:	04e00e93          	li	t4,78
   12418:	00010617          	auipc	a2,0x10
   1241c:	0c060613          	addi	a2,a2,192 # 224d8 <zeroes.4541+0x200>
   12420:	000db583          	ld	a1,0(s11)
   12424:	0005c503          	lbu	a0,0(a1)
   12428:	fd55071b          	addiw	a4,a0,-43
   1242c:	0ff77713          	andi	a4,a4,255
   12430:	52eee963          	bltu	t4,a4,12962 <__svfscanf_r+0x88e>
   12434:	070a                	slli	a4,a4,0x2
   12436:	9732                	add	a4,a4,a2
   12438:	4318                	lw	a4,0(a4)
   1243a:	9732                	add	a4,a4,a2
   1243c:	8702                	jr	a4
   1243e:	85ee                	mv	a1,s11
   12440:	854e                	mv	a0,s3
   12442:	3e2060ef          	jal	ra,18824 <__srefill_r>
   12446:	56051363          	bnez	a0,129ac <__svfscanf_r+0x8d8>
   1244a:	000db603          	ld	a2,0(s11)
   1244e:	00064703          	lbu	a4,0(a2)
   12452:	9762                	add	a4,a4,s8
   12454:	00074703          	lbu	a4,0(a4)
   12458:	8b21                	andi	a4,a4,8
   1245a:	d31d                	beqz	a4,12380 <__svfscanf_r+0x2ac>
   1245c:	008da703          	lw	a4,8(s11)
   12460:	2a05                	addiw	s4,s4,1
   12462:	fff7059b          	addiw	a1,a4,-1
   12466:	00bda423          	sw	a1,8(s11)
   1246a:	fcb05ae3          	blez	a1,1243e <__svfscanf_r+0x36a>
   1246e:	0605                	addi	a2,a2,1
   12470:	00cdb023          	sd	a2,0(s11)
   12474:	00064703          	lbu	a4,0(a2)
   12478:	9762                	add	a4,a4,s8
   1247a:	00074703          	lbu	a4,0(a4)
   1247e:	8b21                	andi	a4,a4,8
   12480:	ff71                	bnez	a4,1245c <__svfscanf_r+0x388>
   12482:	4709                	li	a4,2
   12484:	f0eb91e3          	bne	s7,a4,12386 <__svfscanf_r+0x2b2>
   12488:	000b1363          	bnez	s6,1248e <__svfscanf_r+0x3ba>
   1248c:	5b7d                	li	s6,-1
   1248e:	010cf793          	andi	a5,s9,16
   12492:	001cf713          	andi	a4,s9,1
   12496:	00078b9b          	sext.w	s7,a5
   1249a:	62070de3          	beqz	a4,132d4 <__svfscanf_r+0x1200>
   1249e:	000b8463          	beqz	s7,124a6 <__svfscanf_r+0x3d2>
   124a2:	3060106f          	j	137a8 <__svfscanf_r+0x16d4>
   124a6:	76fd                	lui	a3,0xfffff
   124a8:	ad068693          	addi	a3,a3,-1328 # ffffffffffffead0 <__BSS_END__+0xfffffffffffd9248>
   124ac:	008a8793          	addi	a5,s5,8
   124b0:	96a2                	add	a3,a3,s0
   124b2:	e29c                	sd	a5,0(a3)
   124b4:	000ab783          	ld	a5,0(s5)
   124b8:	76fd                	lui	a3,0xfffff
   124ba:	af068693          	addi	a3,a3,-1296 # ffffffffffffeaf0 <__BSS_END__+0xfffffffffffd9268>
   124be:	96a2                	add	a3,a3,s0
   124c0:	080cf713          	andi	a4,s9,128
   124c4:	e29c                	sd	a5,0(a3)
   124c6:	e319                	bnez	a4,124cc <__svfscanf_r+0x3f8>
   124c8:	0a90106f          	j	13d70 <__svfscanf_r+0x1c9c>
   124cc:	d60787e3          	beqz	a5,1223a <__svfscanf_r+0x166>
   124d0:	08000513          	li	a0,128
   124d4:	2b7040ef          	jal	ra,16f8a <malloc>
   124d8:	8caa                	mv	s9,a0
   124da:	e119                	bnez	a0,124e0 <__svfscanf_r+0x40c>
   124dc:	1b70106f          	j	13e92 <__svfscanf_r+0x1dbe>
   124e0:	77fd                	lui	a5,0xfffff
   124e2:	ae078793          	addi	a5,a5,-1312 # ffffffffffffeae0 <__BSS_END__+0xfffffffffffd9258>
   124e6:	97a2                	add	a5,a5,s0
   124e8:	639c                	ld	a5,0(a5)
   124ea:	76fd                	lui	a3,0xfffff
   124ec:	af068693          	addi	a3,a3,-1296 # ffffffffffffeaf0 <__BSS_END__+0xfffffffffffd9268>
   124f0:	96a2                	add	a3,a3,s0
   124f2:	6294                	ld	a3,0(a3)
   124f4:	0087d703          	lhu	a4,8(a5)
   124f8:	00a7dd03          	lhu	s10,10(a5)
   124fc:	e288                	sd	a0,0(a3)
   124fe:	0007069b          	sext.w	a3,a4
   12502:	00dd6463          	bltu	s10,a3,1250a <__svfscanf_r+0x436>
   12506:	5780106f          	j	13a7e <__svfscanf_r+0x19aa>
   1250a:	6388                	ld	a0,0(a5)
   1250c:	77fd                	lui	a5,0xfffff
   1250e:	ae078793          	addi	a5,a5,-1312 # ffffffffffffeae0 <__BSS_END__+0xfffffffffffd9258>
   12512:	97a2                	add	a5,a5,s0
   12514:	639c                	ld	a5,0(a5)
   12516:	003d1713          	slli	a4,s10,0x3
   1251a:	2d05                	addiw	s10,s10,1
   1251c:	01a79523          	sh	s10,10(a5)
   12520:	77fd                	lui	a5,0xfffff
   12522:	af078793          	addi	a5,a5,-1296 # ffffffffffffeaf0 <__BSS_END__+0xfffffffffffd9268>
   12526:	97a2                	add	a5,a5,s0
   12528:	639c                	ld	a5,0(a5)
   1252a:	953a                	add	a0,a0,a4
   1252c:	777d                	lui	a4,0xfffff
   1252e:	e11c                	sd	a5,0(a0)
   12530:	77fd                	lui	a5,0xfffff
   12532:	ad078793          	addi	a5,a5,-1328 # ffffffffffffead0 <__BSS_END__+0xfffffffffffd9248>
   12536:	97a2                	add	a5,a5,s0
   12538:	0007ba83          	ld	s5,0(a5)
   1253c:	77fd                	lui	a5,0xfffff
   1253e:	ab078793          	addi	a5,a5,-1360 # ffffffffffffeab0 <__BSS_END__+0xfffffffffffd9228>
   12542:	97a2                	add	a5,a5,s0
   12544:	ab870713          	addi	a4,a4,-1352 # ffffffffffffeab8 <__BSS_END__+0xfffffffffffd9230>
   12548:	0197b023          	sd	s9,0(a5)
   1254c:	9722                	add	a4,a4,s0
   1254e:	02000793          	li	a5,32
   12552:	e31c                	sd	a5,0(a4)
   12554:	777d                	lui	a4,0xfffff
   12556:	ad070713          	addi	a4,a4,-1328 # ffffffffffffead0 <__BSS_END__+0xfffffffffffd9248>
   1255a:	9722                	add	a4,a4,s0
   1255c:	77fd                	lui	a5,0xfffff
   1255e:	00073023          	sd	zero,0(a4)
   12562:	f9040713          	addi	a4,s0,-112
   12566:	b8878e93          	addi	t4,a5,-1144 # ffffffffffffeb88 <__BSS_END__+0xfffffffffffd9300>
   1256a:	97ba                	add	a5,a5,a4
   1256c:	777d                	lui	a4,0xfffff
   1256e:	aa870713          	addi	a4,a4,-1368 # ffffffffffffeaa8 <__BSS_END__+0xfffffffffffd9220>
   12572:	9722                	add	a4,a4,s0
   12574:	e31c                	sd	a5,0(a4)
   12576:	f9040793          	addi	a5,s0,-112
   1257a:	01d78d33          	add	s10,a5,t4
   1257e:	000db703          	ld	a4,0(s11)
   12582:	00074703          	lbu	a4,0(a4)
   12586:	9762                	add	a4,a4,s8
   12588:	00074703          	lbu	a4,0(a4)
   1258c:	8b21                	andi	a4,a4,8
   1258e:	c319                	beqz	a4,12594 <__svfscanf_r+0x4c0>
   12590:	3900106f          	j	13920 <__svfscanf_r+0x184c>
   12594:	000b1463          	bnez	s6,1259c <__svfscanf_r+0x4c8>
   12598:	3880106f          	j	13920 <__svfscanf_r+0x184c>
   1259c:	09f040ef          	jal	ra,16e3a <__locale_mb_cur_max>
   125a0:	77fd                	lui	a5,0xfffff
   125a2:	ad078793          	addi	a5,a5,-1328 # ffffffffffffead0 <__BSS_END__+0xfffffffffffd9248>
   125a6:	97a2                	add	a5,a5,s0
   125a8:	639c                	ld	a5,0(a5)
   125aa:	40f50163          	beq	a0,a5,129ac <__svfscanf_r+0x8d8>
   125ae:	000db703          	ld	a4,0(s11)
   125b2:	767d                	lui	a2,0xfffff
   125b4:	aa860613          	addi	a2,a2,-1368 # ffffffffffffeaa8 <__BSS_END__+0xfffffffffffd9220>
   125b8:	9622                	add	a2,a2,s0
   125ba:	00074583          	lbu	a1,0(a4)
   125be:	008da683          	lw	a3,8(s11)
   125c2:	0705                	addi	a4,a4,1
   125c4:	6208                	ld	a0,0(a2)
   125c6:	787d                	lui	a6,0xfffff
   125c8:	00edb023          	sd	a4,0(s11)
   125cc:	777d                	lui	a4,0xfffff
   125ce:	aa080813          	addi	a6,a6,-1376 # ffffffffffffeaa0 <__BSS_END__+0xfffffffffffd9218>
   125d2:	ac070713          	addi	a4,a4,-1344 # ffffffffffffeac0 <__BSS_END__+0xfffffffffffd9238>
   125d6:	00f50633          	add	a2,a0,a5
   125da:	36fd                	addiw	a3,a3,-1
   125dc:	2785                	addiw	a5,a5,1
   125de:	9822                	add	a6,a6,s0
   125e0:	9722                	add	a4,a4,s0
   125e2:	00f82023          	sw	a5,0(a6)
   125e6:	e31c                	sd	a5,0(a4)
   125e8:	c8b60823          	sb	a1,-880(a2)
   125ec:	00dda423          	sw	a3,8(s11)
   125f0:	478d                	li	a5,3
   125f2:	00f49763          	bne	s1,a5,12600 <__svfscanf_r+0x52c>
   125f6:	b8852703          	lw	a4,-1144(a0)
   125fa:	4791                	li	a5,4
   125fc:	00f70763          	beq	a4,a5,1260a <__svfscanf_r+0x536>
   12600:	4621                	li	a2,8
   12602:	4581                	li	a1,0
   12604:	856a                	mv	a0,s10
   12606:	cd7fd0ef          	jal	ra,102dc <memset>
   1260a:	77fd                	lui	a5,0xfffff
   1260c:	ac078793          	addi	a5,a5,-1344 # ffffffffffffeac0 <__BSS_END__+0xfffffffffffd9238>
   12610:	97a2                	add	a5,a5,s0
   12612:	6394                	ld	a3,0(a5)
   12614:	77fd                	lui	a5,0xfffff
   12616:	af878793          	addi	a5,a5,-1288 # ffffffffffffeaf8 <__BSS_END__+0xfffffffffffd9270>
   1261a:	97a2                	add	a5,a5,s0
   1261c:	6390                	ld	a2,0(a5)
   1261e:	876a                	mv	a4,s10
   12620:	85e6                	mv	a1,s9
   12622:	854e                	mv	a0,s3
   12624:	7dd040ef          	jal	ra,17600 <_mbrtowc_r>
   12628:	577d                	li	a4,-1
   1262a:	84aa                	mv	s1,a0
   1262c:	38e50063          	beq	a0,a4,129ac <__svfscanf_r+0x8d8>
   12630:	c119                	beqz	a0,12636 <__svfscanf_r+0x562>
   12632:	5780106f          	j	13baa <__svfscanf_r+0x1ad6>
   12636:	000ca023          	sw	zero,0(s9)
   1263a:	706020ef          	jal	ra,14d40 <iswspace>
   1263e:	c119                	beqz	a0,12644 <__svfscanf_r+0x570>
   12640:	62c0106f          	j	13c6c <__svfscanf_r+0x1b98>
   12644:	77fd                	lui	a5,0xfffff
   12646:	aa078793          	addi	a5,a5,-1376 # ffffffffffffeaa0 <__BSS_END__+0xfffffffffffd9218>
   1264a:	97a2                	add	a5,a5,s0
   1264c:	439c                	lw	a5,0(a5)
   1264e:	01478a3b          	addw	s4,a5,s4
   12652:	1b7d                	addi	s6,s6,-1
   12654:	000b8463          	beqz	s7,1265c <__svfscanf_r+0x588>
   12658:	7c00106f          	j	13e18 <__svfscanf_r+0x1d44>
   1265c:	77fd                	lui	a5,0xfffff
   1265e:	af078793          	addi	a5,a5,-1296 # ffffffffffffeaf0 <__BSS_END__+0xfffffffffffd9268>
   12662:	97a2                	add	a5,a5,s0
   12664:	639c                	ld	a5,0(a5)
   12666:	0c91                	addi	s9,s9,4
   12668:	e399                	bnez	a5,1266e <__svfscanf_r+0x59a>
   1266a:	7ae0106f          	j	13e18 <__svfscanf_r+0x1d44>
   1266e:	76fd                	lui	a3,0xfffff
   12670:	77fd                	lui	a5,0xfffff
   12672:	ac068693          	addi	a3,a3,-1344 # ffffffffffffeac0 <__BSS_END__+0xfffffffffffd9238>
   12676:	96a2                	add	a3,a3,s0
   12678:	ab078793          	addi	a5,a5,-1360 # ffffffffffffeab0 <__BSS_END__+0xfffffffffffd9228>
   1267c:	0006b023          	sd	zero,0(a3)
   12680:	97a2                	add	a5,a5,s0
   12682:	76fd                	lui	a3,0xfffff
   12684:	639c                	ld	a5,0(a5)
   12686:	ab868693          	addi	a3,a3,-1352 # ffffffffffffeab8 <__BSS_END__+0xfffffffffffd9230>
   1268a:	96a2                	add	a3,a3,s0
   1268c:	6294                	ld	a3,0(a3)
   1268e:	40fc87b3          	sub	a5,s9,a5
   12692:	4027d713          	srai	a4,a5,0x2
   12696:	00d77463          	bgeu	a4,a3,1269e <__svfscanf_r+0x5ca>
   1269a:	5160106f          	j	13bb0 <__svfscanf_r+0x1adc>
   1269e:	777d                	lui	a4,0xfffff
   126a0:	ad070713          	addi	a4,a4,-1328 # ffffffffffffead0 <__BSS_END__+0xfffffffffffd9248>
   126a4:	9722                	add	a4,a4,s0
   126a6:	e31c                	sd	a5,0(a4)
   126a8:	77fd                	lui	a5,0xfffff
   126aa:	ab078793          	addi	a5,a5,-1360 # ffffffffffffeab0 <__BSS_END__+0xfffffffffffd9228>
   126ae:	97a2                	add	a5,a5,s0
   126b0:	6388                	ld	a0,0(a5)
   126b2:	00369593          	slli	a1,a3,0x3
   126b6:	4f7050ef          	jal	ra,183ac <realloc>
   126ba:	77fd                	lui	a5,0xfffff
   126bc:	ab078793          	addi	a5,a5,-1360 # ffffffffffffeab0 <__BSS_END__+0xfffffffffffd9228>
   126c0:	97a2                	add	a5,a5,s0
   126c2:	e388                	sd	a0,0(a5)
   126c4:	e119                	bnez	a0,126ca <__svfscanf_r+0x5f6>
   126c6:	7cc0106f          	j	13e92 <__svfscanf_r+0x1dbe>
   126ca:	77fd                	lui	a5,0xfffff
   126cc:	ad078793          	addi	a5,a5,-1328 # ffffffffffffead0 <__BSS_END__+0xfffffffffffd9248>
   126d0:	97a2                	add	a5,a5,s0
   126d2:	639c                	ld	a5,0(a5)
   126d4:	777d                	lui	a4,0xfffff
   126d6:	ab870713          	addi	a4,a4,-1352 # ffffffffffffeab8 <__BSS_END__+0xfffffffffffd9230>
   126da:	00f50cb3          	add	s9,a0,a5
   126de:	77fd                	lui	a5,0xfffff
   126e0:	af078793          	addi	a5,a5,-1296 # ffffffffffffeaf0 <__BSS_END__+0xfffffffffffd9268>
   126e4:	97a2                	add	a5,a5,s0
   126e6:	6394                	ld	a3,0(a5)
   126e8:	77fd                	lui	a5,0xfffff
   126ea:	ab878793          	addi	a5,a5,-1352 # ffffffffffffeab8 <__BSS_END__+0xfffffffffffd9230>
   126ee:	97a2                	add	a5,a5,s0
   126f0:	639c                	ld	a5,0(a5)
   126f2:	9722                	add	a4,a4,s0
   126f4:	e288                	sd	a0,0(a3)
   126f6:	0786                	slli	a5,a5,0x1
   126f8:	e31c                	sd	a5,0(a4)
   126fa:	77fd                	lui	a5,0xfffff
   126fc:	ac078793          	addi	a5,a5,-1344 # ffffffffffffeac0 <__BSS_END__+0xfffffffffffd9238>
   12700:	97a2                	add	a5,a5,s0
   12702:	0177b023          	sd	s7,0(a5)
   12706:	4aa0106f          	j	13bb0 <__svfscanf_r+0x1adc>
   1270a:	01af0733          	add	a4,t5,s10
   1270e:	e70d                	bnez	a4,12738 <__svfscanf_r+0x664>
   12710:	e7fc7c13          	andi	s8,s8,-385
   12714:	00ac8023          	sb	a0,0(s9)
   12718:	1b7d                	addi	s6,s6,-1
   1271a:	0c85                	addi	s9,s9,1
   1271c:	008da703          	lw	a4,8(s11)
   12720:	2a05                	addiw	s4,s4,1
   12722:	fff7051b          	addiw	a0,a4,-1
   12726:	00ada423          	sw	a0,8(s11)
   1272a:	1aa05563          	blez	a0,128d4 <__svfscanf_r+0x800>
   1272e:	0585                	addi	a1,a1,1
   12730:	00bdb023          	sd	a1,0(s11)
   12734:	ce0b16e3          	bnez	s6,12420 <__svfscanf_r+0x34c>
   12738:	6c0b92e3          	bnez	s7,135fc <__svfscanf_r+0x1528>
   1273c:	3f7d                	addiw	t5,t5,-1
   1273e:	4705                	li	a4,1
   12740:	01e76463          	bltu	a4,t5,12748 <__svfscanf_r+0x674>
   12744:	7a40106f          	j	13ee8 <__svfscanf_r+0x1e14>
   12748:	fffd071b          	addiw	a4,s10,-1
   1274c:	4619                	li	a2,6
   1274e:	00e66463          	bltu	a2,a4,12756 <__svfscanf_r+0x682>
   12752:	27a0106f          	j	139cc <__svfscanf_r+0x18f8>
   12756:	100c7713          	andi	a4,s8,256
   1275a:	c721                	beqz	a4,127a2 <__svfscanf_r+0x6ce>
   1275c:	400c7713          	andi	a4,s8,1024
   12760:	c319                	beqz	a4,12766 <__svfscanf_r+0x692>
   12762:	7ba0106f          	j	13f1c <__svfscanf_r+0x1e48>
   12766:	fffcc583          	lbu	a1,-1(s9)
   1276a:	06500713          	li	a4,101
   1276e:	fffc8b13          	addi	s6,s9,-1
   12772:	fffa0d1b          	addiw	s10,s4,-1
   12776:	02e58063          	beq	a1,a4,12796 <__svfscanf_r+0x6c2>
   1277a:	04500713          	li	a4,69
   1277e:	00e58c63          	beq	a1,a4,12796 <__svfscanf_r+0x6c2>
   12782:	866e                	mv	a2,s11
   12784:	854e                	mv	a0,s3
   12786:	325090ef          	jal	ra,1c2aa <_ungetc_r>
   1278a:	ffecc583          	lbu	a1,-2(s9)
   1278e:	ffec8b13          	addi	s6,s9,-2
   12792:	ffea0d1b          	addiw	s10,s4,-2
   12796:	866e                	mv	a2,s11
   12798:	854e                	mv	a0,s3
   1279a:	311090ef          	jal	ra,1c2aa <_ungetc_r>
   1279e:	8a6a                	mv	s4,s10
   127a0:	8cda                	mv	s9,s6
   127a2:	010c7713          	andi	a4,s8,16
   127a6:	a00712e3          	bnez	a4,121aa <__svfscanf_r+0xd6>
   127aa:	000c8023          	sb	zero,0(s9)
   127ae:	600c7713          	andi	a4,s8,1536
   127b2:	40000693          	li	a3,1024
   127b6:	77fd                	lui	a5,0xfffff
   127b8:	70d705e3          	beq	a4,a3,136c2 <__svfscanf_r+0x15ee>
   127bc:	ab078793          	addi	a5,a5,-1360 # ffffffffffffeab0 <__BSS_END__+0xfffffffffffd9228>
   127c0:	97a2                	add	a5,a5,s0
   127c2:	639c                	ld	a5,0(a5)
   127c4:	c399                	beqz	a5,127ca <__svfscanf_r+0x6f6>
   127c6:	54c0106f          	j	13d12 <__svfscanf_r+0x1c3e>
   127ca:	77fd                	lui	a5,0xfffff
   127cc:	af878793          	addi	a5,a5,-1288 # ffffffffffffeaf8 <__BSS_END__+0xfffffffffffd9270>
   127d0:	002c7713          	andi	a4,s8,2
   127d4:	97a2                	add	a5,a5,s0
   127d6:	001c7b93          	andi	s7,s8,1
   127da:	4601                	li	a2,0
   127dc:	008a8c13          	addi	s8,s5,8
   127e0:	638c                	ld	a1,0(a5)
   127e2:	854e                	mv	a0,s3
   127e4:	e319                	bnez	a4,127ea <__svfscanf_r+0x716>
   127e6:	2240106f          	j	13a0a <__svfscanf_r+0x1936>
   127ea:	6d8070ef          	jal	ra,19ec2 <_strtold_r>
   127ee:	000b9463          	bnez	s7,127f6 <__svfscanf_r+0x722>
   127f2:	3820106f          	j	13b74 <__svfscanf_r+0x1aa0>
   127f6:	f2000553          	fmv.d.x	fa0,zero
   127fa:	000ab703          	ld	a4,0(s5)
   127fe:	a308                	fsd	fa0,0(a4)
   12800:	77fd                	lui	a5,0xfffff
   12802:	ad878793          	addi	a5,a5,-1320 # ffffffffffffead8 <__BSS_END__+0xfffffffffffd9250>
   12806:	97a2                	add	a5,a5,s0
   12808:	639c                	ld	a5,0(a5)
   1280a:	777d                	lui	a4,0xfffff
   1280c:	ad870713          	addi	a4,a4,-1320 # ffffffffffffead8 <__BSS_END__+0xfffffffffffd9250>
   12810:	2785                	addiw	a5,a5,1
   12812:	9722                	add	a4,a4,s0
   12814:	e31c                	sd	a5,0(a4)
   12816:	8ae2                	mv	s5,s8
   12818:	ba49                	j	121aa <__svfscanf_r+0xd6>
   1281a:	479d                	li	a5,7
   1281c:	f0fd1ee3          	bne	s10,a5,12738 <__svfscanf_r+0x664>
   12820:	4d21                	li	s10,8
   12822:	bdcd                	j	12714 <__svfscanf_r+0x640>
   12824:	4799                	li	a5,6
   12826:	f0fd19e3          	bne	s10,a5,12738 <__svfscanf_r+0x664>
   1282a:	4d1d                	li	s10,7
   1282c:	b5e5                	j	12714 <__svfscanf_r+0x640>
   1282e:	280f1de3          	bnez	t5,132c8 <__svfscanf_r+0x11f4>
   12832:	000b9a63          	bnez	s7,12846 <__svfscanf_r+0x772>
   12836:	700c7713          	andi	a4,s8,1792
   1283a:	70000f93          	li	t6,1792
   1283e:	01f71463          	bne	a4,t6,12846 <__svfscanf_r+0x772>
   12842:	38e0106f          	j	13bd0 <__svfscanf_r+0x1afc>
   12846:	4705                	li	a4,1
   12848:	00ed0563          	beq	s10,a4,12852 <__svfscanf_r+0x77e>
   1284c:	4711                	li	a4,4
   1284e:	eeed15e3          	bne	s10,a4,12738 <__svfscanf_r+0x664>
   12852:	001d069b          	addiw	a3,s10,1
   12856:	0ff6fd13          	andi	s10,a3,255
   1285a:	bd6d                	j	12714 <__svfscanf_r+0x640>
   1285c:	240d1de3          	bnez	s10,132b6 <__svfscanf_r+0x11e2>
   12860:	580b9ee3          	bnez	s7,135fc <__svfscanf_r+0x1528>
   12864:	700c7713          	andi	a4,s8,1792
   12868:	70000f93          	li	t6,1792
   1286c:	edf718e3          	bne	a4,t6,1273c <__svfscanf_r+0x668>
   12870:	87fc7c13          	andi	s8,s8,-1921
   12874:	4d05                	li	s10,1
   12876:	bd79                	j	12714 <__svfscanf_r+0x640>
   12878:	4789                	li	a5,2
   1287a:	eafd1fe3          	bne	s10,a5,12738 <__svfscanf_r+0x664>
   1287e:	4d0d                	li	s10,3
   12880:	bd51                	j	12714 <__svfscanf_r+0x640>
   12882:	080c7713          	andi	a4,s8,128
   12886:	ea0709e3          	beqz	a4,12738 <__svfscanf_r+0x664>
   1288a:	f7fc7c13          	andi	s8,s8,-129
   1288e:	b559                	j	12714 <__svfscanf_r+0x640>
   12890:	100c7713          	andi	a4,s8,256
   12894:	e6070be3          	beqz	a4,1270a <__svfscanf_r+0x636>
   12898:	77fd                	lui	a5,0xfffff
   1289a:	ab878793          	addi	a5,a5,-1352 # ffffffffffffeab8 <__BSS_END__+0xfffffffffffd9230>
   1289e:	97a2                	add	a5,a5,s0
   128a0:	639c                	ld	a5,0(a5)
   128a2:	f7fc7c13          	andi	s8,s8,-129
   128a6:	0b85                	addi	s7,s7,1
   128a8:	5a0783e3          	beqz	a5,1364e <__svfscanf_r+0x157a>
   128ac:	77fd                	lui	a5,0xfffff
   128ae:	ab878793          	addi	a5,a5,-1352 # ffffffffffffeab8 <__BSS_END__+0xfffffffffffd9230>
   128b2:	97a2                	add	a5,a5,s0
   128b4:	639c                	ld	a5,0(a5)
   128b6:	777d                	lui	a4,0xfffff
   128b8:	ab870713          	addi	a4,a4,-1352 # ffffffffffffeab8 <__BSS_END__+0xfffffffffffd9230>
   128bc:	9722                	add	a4,a4,s0
   128be:	37fd                	addiw	a5,a5,-1
   128c0:	e31c                	sd	a5,0(a4)
   128c2:	008da703          	lw	a4,8(s11)
   128c6:	2a05                	addiw	s4,s4,1
   128c8:	fff7051b          	addiw	a0,a4,-1
   128cc:	00ada423          	sw	a0,8(s11)
   128d0:	e4a04fe3          	bgtz	a0,1272e <__svfscanf_r+0x65a>
   128d4:	77fd                	lui	a5,0xfffff
   128d6:	af078793          	addi	a5,a5,-1296 # ffffffffffffeaf0 <__BSS_END__+0xfffffffffffd9268>
   128da:	97a2                	add	a5,a5,s0
   128dc:	85ee                	mv	a1,s11
   128de:	854e                	mv	a0,s3
   128e0:	01e7b023          	sd	t5,0(a5)
   128e4:	741050ef          	jal	ra,18824 <__srefill_r>
   128e8:	77fd                	lui	a5,0xfffff
   128ea:	af078793          	addi	a5,a5,-1296 # ffffffffffffeaf0 <__BSS_END__+0xfffffffffffd9268>
   128ee:	97a2                	add	a5,a5,s0
   128f0:	0007bf03          	ld	t5,0(a5)
   128f4:	04e00e93          	li	t4,78
   128f8:	00010617          	auipc	a2,0x10
   128fc:	be060613          	addi	a2,a2,-1056 # 224d8 <zeroes.4541+0x200>
   12900:	e2051ce3          	bnez	a0,12738 <__svfscanf_r+0x664>
   12904:	b00b1ee3          	bnez	s6,12420 <__svfscanf_r+0x34c>
   12908:	bd05                	j	12738 <__svfscanf_r+0x664>
   1290a:	500c7713          	andi	a4,s8,1280
   1290e:	40000793          	li	a5,1024
   12912:	00f70863          	beq	a4,a5,12922 <__svfscanf_r+0x84e>
   12916:	400c7713          	andi	a4,s8,1024
   1291a:	e0070fe3          	beqz	a4,12738 <__svfscanf_r+0x664>
   1291e:	e00b8fe3          	beqz	s7,1273c <__svfscanf_r+0x668>
   12922:	200c7713          	andi	a4,s8,512
   12926:	e31d                	bnez	a4,1294c <__svfscanf_r+0x878>
   12928:	77fd                	lui	a5,0xfffff
   1292a:	ad078793          	addi	a5,a5,-1328 # ffffffffffffead0 <__BSS_END__+0xfffffffffffd9248>
   1292e:	97a2                	add	a5,a5,s0
   12930:	639c                	ld	a5,0(a5)
   12932:	777d                	lui	a4,0xfffff
   12934:	ab070713          	addi	a4,a4,-1360 # ffffffffffffeab0 <__BSS_END__+0xfffffffffffd9228>
   12938:	40fb87b3          	sub	a5,s7,a5
   1293c:	9722                	add	a4,a4,s0
   1293e:	e31c                	sd	a5,0(a4)
   12940:	77fd                	lui	a5,0xfffff
   12942:	aa878793          	addi	a5,a5,-1368 # ffffffffffffeaa8 <__BSS_END__+0xfffffffffffd9220>
   12946:	97a2                	add	a5,a5,s0
   12948:	0197b023          	sd	s9,0(a5)
   1294c:	87fc7313          	andi	t1,s8,-1921
   12950:	18036c13          	ori	s8,t1,384
   12954:	4b81                	li	s7,0
   12956:	bb7d                	j	12714 <__svfscanf_r+0x640>
   12958:	4705                	li	a4,1
   1295a:	dcef1fe3          	bne	t5,a4,12738 <__svfscanf_r+0x664>
   1295e:	4f09                	li	t5,2
   12960:	bb55                	j	12714 <__svfscanf_r+0x640>
   12962:	77fd                	lui	a5,0xfffff
   12964:	ac078793          	addi	a5,a5,-1344 # ffffffffffffeac0 <__BSS_END__+0xfffffffffffd9238>
   12968:	97a2                	add	a5,a5,s0
   1296a:	639c                	ld	a5,0(a5)
   1296c:	0007c703          	lbu	a4,0(a5)
   12970:	dca714e3          	bne	a4,a0,12738 <__svfscanf_r+0x664>
   12974:	200c7713          	andi	a4,s8,512
   12978:	dc0700e3          	beqz	a4,12738 <__svfscanf_r+0x664>
   1297c:	77fd                	lui	a5,0xfffff
   1297e:	ad078793          	addi	a5,a5,-1328 # ffffffffffffead0 <__BSS_END__+0xfffffffffffd9248>
   12982:	d7fc7313          	andi	t1,s8,-641
   12986:	97a2                	add	a5,a5,s0
   12988:	00030c1b          	sext.w	s8,t1
   1298c:	0177b023          	sd	s7,0(a5)
   12990:	b351                	j	12714 <__svfscanf_r+0x640>
   12992:	001cec93          	ori	s9,s9,1
   12996:	008da703          	lw	a4,8(s11)
   1299a:	4b89                	li	s7,2
   1299c:	9ce04fe3          	bgtz	a4,1237a <__svfscanf_r+0x2a6>
   129a0:	85ee                	mv	a1,s11
   129a2:	854e                	mv	a0,s3
   129a4:	681050ef          	jal	ra,18824 <__srefill_r>
   129a8:	9c0509e3          	beqz	a0,1237a <__svfscanf_r+0x2a6>
   129ac:	77fd                	lui	a5,0xfffff
   129ae:	ad878793          	addi	a5,a5,-1320 # ffffffffffffead8 <__BSS_END__+0xfffffffffffd9250>
   129b2:	97a2                	add	a5,a5,s0
   129b4:	639c                	ld	a5,0(a5)
   129b6:	e399                	bnez	a5,129bc <__svfscanf_r+0x8e8>
   129b8:	50e0106f          	j	13ec6 <__svfscanf_r+0x1df2>
   129bc:	010dd783          	lhu	a5,16(s11)
   129c0:	0407f793          	andi	a5,a5,64
   129c4:	920787e3          	beqz	a5,122f2 <__svfscanf_r+0x21e>
   129c8:	77fd                	lui	a5,0xfffff
   129ca:	ae078793          	addi	a5,a5,-1312 # ffffffffffffeae0 <__BSS_END__+0xfffffffffffd9258>
   129ce:	97a2                	add	a5,a5,s0
   129d0:	639c                	ld	a5,0(a5)
   129d2:	e399                	bnez	a5,129d8 <__svfscanf_r+0x904>
   129d4:	4e20106f          	j	13eb6 <__svfscanf_r+0x1de2>
   129d8:	0007ba83          	ld	s5,0(a5)
   129dc:	00a7dc83          	lhu	s9,10(a5)
   129e0:	020c8563          	beqz	s9,12a0a <__svfscanf_r+0x936>
   129e4:	fffc879b          	addiw	a5,s9,-1
   129e8:	1782                	slli	a5,a5,0x20
   129ea:	83f5                	srli	a5,a5,0x1d
   129ec:	008a8913          	addi	s2,s5,8
   129f0:	84d6                	mv	s1,s5
   129f2:	993e                	add	s2,s2,a5
   129f4:	609c                	ld	a5,0(s1)
   129f6:	04a1                	addi	s1,s1,8
   129f8:	6388                	ld	a0,0(a5)
   129fa:	59a040ef          	jal	ra,16f94 <free>
   129fe:	ff84b783          	ld	a5,-8(s1)
   12a02:	0007b023          	sd	zero,0(a5)
   12a06:	ff2497e3          	bne	s1,s2,129f4 <__svfscanf_r+0x920>
   12a0a:	777d                	lui	a4,0xfffff
   12a0c:	ad870713          	addi	a4,a4,-1320 # ffffffffffffead8 <__BSS_END__+0xfffffffffffd9250>
   12a10:	57fd                	li	a5,-1
   12a12:	9722                	add	a4,a4,s0
   12a14:	e31c                	sd	a5,0(a4)
   12a16:	835ff06f          	j	1224a <__svfscanf_r+0x176>
   12a1a:	001cec93          	ori	s9,s9,1
   12a1e:	00007797          	auipc	a5,0x7
   12a22:	7fa78793          	addi	a5,a5,2042 # 1a218 <_strtol_r>
   12a26:	777d                	lui	a4,0xfffff
   12a28:	ac870713          	addi	a4,a4,-1336 # ffffffffffffeac8 <__BSS_END__+0xfffffffffffd9240>
   12a2c:	9722                	add	a4,a4,s0
   12a2e:	e31c                	sd	a5,0(a4)
   12a30:	47a9                	li	a5,10
   12a32:	ba15                	j	12366 <__svfscanf_r+0x292>
   12a34:	001cec93          	ori	s9,s9,1
   12a38:	040cec93          	ori	s9,s9,64
   12a3c:	4b81                	li	s7,0
   12a3e:	008da703          	lw	a4,8(s11)
   12a42:	92e04fe3          	bgtz	a4,12380 <__svfscanf_r+0x2ac>
   12a46:	85ee                	mv	a1,s11
   12a48:	854e                	mv	a0,s3
   12a4a:	5db050ef          	jal	ra,18824 <__srefill_r>
   12a4e:	920506e3          	beqz	a0,1237a <__svfscanf_r+0x2a6>
   12a52:	bfa9                	j	129ac <__svfscanf_r+0x8d8>
   12a54:	08fcf713          	andi	a4,s9,143
   12a58:	88071de3          	bnez	a4,122f2 <__svfscanf_r+0x21e>
   12a5c:	002b1713          	slli	a4,s6,0x2
   12a60:	016708b3          	add	a7,a4,s6
   12a64:	0886                	slli	a7,a7,0x1
   12a66:	95c6                	add	a1,a1,a7
   12a68:	fd058b13          	addi	s6,a1,-48
   12a6c:	001bc583          	lbu	a1,1(s7)
   12a70:	8bca                	mv	s7,s2
   12a72:	f8eff06f          	j	12200 <__svfscanf_r+0x12c>
   12a76:	860c9ee3          	bnez	s9,122f2 <__svfscanf_r+0x21e>
   12a7a:	860b1ce3          	bnez	s6,122f2 <__svfscanf_r+0x21e>
   12a7e:	001bc583          	lbu	a1,1(s7)
   12a82:	4cc1                	li	s9,16
   12a84:	8bca                	mv	s7,s2
   12a86:	f7aff06f          	j	12200 <__svfscanf_r+0x12c>
   12a8a:	00fcf713          	andi	a4,s9,15
   12a8e:	860712e3          	bnez	a4,122f2 <__svfscanf_r+0x21e>
   12a92:	001bc583          	lbu	a1,1(s7)
   12a96:	002cec93          	ori	s9,s9,2
   12a9a:	8bca                	mv	s7,s2
   12a9c:	f64ff06f          	j	12200 <__svfscanf_r+0x12c>
   12aa0:	4b91                	li	s7,4
   12aa2:	b8c1                	j	12372 <__svfscanf_r+0x29e>
   12aa4:	777d                	lui	a4,0xfffff
   12aa6:	ac870713          	addi	a4,a4,-1336 # ffffffffffffeac8 <__BSS_END__+0xfffffffffffd9240>
   12aaa:	00007797          	auipc	a5,0x7
   12aae:	76e78793          	addi	a5,a5,1902 # 1a218 <_strtol_r>
   12ab2:	9722                	add	a4,a4,s0
   12ab4:	e31c                	sd	a5,0(a4)
   12ab6:	77fd                	lui	a5,0xfffff
   12ab8:	ae878793          	addi	a5,a5,-1304 # ffffffffffffeae8 <__BSS_END__+0xfffffffffffd9260>
   12abc:	97a2                	add	a5,a5,s0
   12abe:	0007b023          	sd	zero,0(a5)
   12ac2:	4b8d                	li	s7,3
   12ac4:	b07d                	j	12372 <__svfscanf_r+0x29e>
   12ac6:	00fcf713          	andi	a4,s9,15
   12aca:	820714e3          	bnez	a4,122f2 <__svfscanf_r+0x21e>
   12ace:	001bc583          	lbu	a1,1(s7)
   12ad2:	43d588e3          	beq	a1,t4,13702 <__svfscanf_r+0x162e>
   12ad6:	004cec93          	ori	s9,s9,4
   12ada:	8bca                	mv	s7,s2
   12adc:	f24ff06f          	j	12200 <__svfscanf_r+0x12c>
   12ae0:	77fd                	lui	a5,0xfffff
   12ae2:	b9078513          	addi	a0,a5,-1136 # ffffffffffffeb90 <__BSS_END__+0xfffffffffffd9308>
   12ae6:	f9040793          	addi	a5,s0,-112
   12aea:	85ca                	mv	a1,s2
   12aec:	953e                	add	a0,a0,a5
   12aee:	6d5050ef          	jal	ra,189c2 <__sccl>
   12af2:	892a                	mv	s2,a0
   12af4:	040cec93          	ori	s9,s9,64
   12af8:	4b85                	li	s7,1
   12afa:	b791                	j	12a3e <__svfscanf_r+0x96a>
   12afc:	200cec93          	ori	s9,s9,512
   12b00:	777d                	lui	a4,0xfffff
   12b02:	ac870713          	addi	a4,a4,-1336 # ffffffffffffeac8 <__BSS_END__+0xfffffffffffd9240>
   12b06:	00008797          	auipc	a5,0x8
   12b0a:	b4078793          	addi	a5,a5,-1216 # 1a646 <_strtoul_r>
   12b0e:	9722                	add	a4,a4,s0
   12b10:	e31c                	sd	a5,0(a4)
   12b12:	47c1                	li	a5,16
   12b14:	b889                	j	12366 <__svfscanf_r+0x292>
   12b16:	220cec93          	ori	s9,s9,544
   12b1a:	b7dd                	j	12b00 <__svfscanf_r+0xa2c>
   12b1c:	00008797          	auipc	a5,0x8
   12b20:	b2a78793          	addi	a5,a5,-1238 # 1a646 <_strtoul_r>
   12b24:	b709                	j	12a26 <__svfscanf_r+0x952>
   12b26:	010cf713          	andi	a4,s9,16
   12b2a:	e8071063          	bnez	a4,121aa <__svfscanf_r+0xd6>
   12b2e:	008cf713          	andi	a4,s9,8
   12b32:	008a8693          	addi	a3,s5,8
   12b36:	000ab603          	ld	a2,0(s5)
   12b3a:	e319                	bnez	a4,12b40 <__svfscanf_r+0xa6c>
   12b3c:	04e0106f          	j	13b8a <__svfscanf_r+0x1ab6>
   12b40:	01460023          	sb	s4,0(a2)
   12b44:	8ab6                	mv	s5,a3
   12b46:	e64ff06f          	j	121aa <__svfscanf_r+0xd6>
   12b4a:	08fcf713          	andi	a4,s9,143
   12b4e:	fa071263          	bnez	a4,122f2 <__svfscanf_r+0x21e>
   12b52:	77fd                	lui	a5,0xfffff
   12b54:	ae078793          	addi	a5,a5,-1312 # ffffffffffffeae0 <__BSS_END__+0xfffffffffffd9258>
   12b58:	97a2                	add	a5,a5,s0
   12b5a:	639c                	ld	a5,0(a5)
   12b5c:	4e0789e3          	beqz	a5,1384e <__svfscanf_r+0x177a>
   12b60:	001bc583          	lbu	a1,1(s7)
   12b64:	080cec93          	ori	s9,s9,128
   12b68:	8bca                	mv	s7,s2
   12b6a:	e96ff06f          	j	12200 <__svfscanf_r+0x12c>
   12b6e:	00fcf713          	andi	a4,s9,15
   12b72:	f8071063          	bnez	a4,122f2 <__svfscanf_r+0x21e>
   12b76:	001bc583          	lbu	a1,1(s7)
   12b7a:	ebc59563          	bne	a1,t3,12224 <__svfscanf_r+0x150>
   12b7e:	002bc583          	lbu	a1,2(s7)
   12b82:	002cec93          	ori	s9,s9,2
   12b86:	0b89                	addi	s7,s7,2
   12b88:	e78ff06f          	j	12200 <__svfscanf_r+0x12c>
   12b8c:	4705                	li	a4,1
   12b8e:	52eb9863          	bne	s7,a4,130be <__svfscanf_r+0xfea>
   12b92:	000b1363          	bnez	s6,12b98 <__svfscanf_r+0xac4>
   12b96:	5b7d                	li	s6,-1
   12b98:	010cf693          	andi	a3,s9,16
   12b9c:	0006879b          	sext.w	a5,a3
   12ba0:	76fd                	lui	a3,0xfffff
   12ba2:	ab868693          	addi	a3,a3,-1352 # ffffffffffffeab8 <__BSS_END__+0xfffffffffffd9230>
   12ba6:	96a2                	add	a3,a3,s0
   12ba8:	001cf713          	andi	a4,s9,1
   12bac:	e29c                	sd	a5,0(a3)
   12bae:	04070ee3          	beqz	a4,1340a <__svfscanf_r+0x1336>
   12bb2:	420795e3          	bnez	a5,137dc <__svfscanf_r+0x1708>
   12bb6:	777d                	lui	a4,0xfffff
   12bb8:	a8070713          	addi	a4,a4,-1408 # ffffffffffffea80 <__BSS_END__+0xfffffffffffd91f8>
   12bbc:	008a8793          	addi	a5,s5,8
   12bc0:	9722                	add	a4,a4,s0
   12bc2:	e31c                	sd	a5,0(a4)
   12bc4:	000ab783          	ld	a5,0(s5)
   12bc8:	777d                	lui	a4,0xfffff
   12bca:	ab070713          	addi	a4,a4,-1360 # ffffffffffffeab0 <__BSS_END__+0xfffffffffffd9228>
   12bce:	9722                	add	a4,a4,s0
   12bd0:	080cf313          	andi	t1,s9,128
   12bd4:	e31c                	sd	a5,0(a4)
   12bd6:	00031463          	bnez	t1,12bde <__svfscanf_r+0xb0a>
   12bda:	1620106f          	j	13d3c <__svfscanf_r+0x1c68>
   12bde:	e4078e63          	beqz	a5,1223a <__svfscanf_r+0x166>
   12be2:	08000513          	li	a0,128
   12be6:	3a4040ef          	jal	ra,16f8a <malloc>
   12bea:	8c2a                	mv	s8,a0
   12bec:	e119                	bnez	a0,12bf2 <__svfscanf_r+0xb1e>
   12bee:	2a40106f          	j	13e92 <__svfscanf_r+0x1dbe>
   12bf2:	77fd                	lui	a5,0xfffff
   12bf4:	ae078793          	addi	a5,a5,-1312 # ffffffffffffeae0 <__BSS_END__+0xfffffffffffd9258>
   12bf8:	97a2                	add	a5,a5,s0
   12bfa:	639c                	ld	a5,0(a5)
   12bfc:	76fd                	lui	a3,0xfffff
   12bfe:	ab068693          	addi	a3,a3,-1360 # ffffffffffffeab0 <__BSS_END__+0xfffffffffffd9228>
   12c02:	96a2                	add	a3,a3,s0
   12c04:	6294                	ld	a3,0(a3)
   12c06:	0087d703          	lhu	a4,8(a5)
   12c0a:	00a7dd03          	lhu	s10,10(a5)
   12c0e:	e288                	sd	a0,0(a3)
   12c10:	0007069b          	sext.w	a3,a4
   12c14:	6cdd7de3          	bgeu	s10,a3,13aee <__svfscanf_r+0x1a1a>
   12c18:	6388                	ld	a0,0(a5)
   12c1a:	77fd                	lui	a5,0xfffff
   12c1c:	ae078793          	addi	a5,a5,-1312 # ffffffffffffeae0 <__BSS_END__+0xfffffffffffd9258>
   12c20:	97a2                	add	a5,a5,s0
   12c22:	639c                	ld	a5,0(a5)
   12c24:	001d0c9b          	addiw	s9,s10,1
   12c28:	003d1713          	slli	a4,s10,0x3
   12c2c:	01979523          	sh	s9,10(a5)
   12c30:	77fd                	lui	a5,0xfffff
   12c32:	ab078793          	addi	a5,a5,-1360 # ffffffffffffeab0 <__BSS_END__+0xfffffffffffd9228>
   12c36:	97a2                	add	a5,a5,s0
   12c38:	639c                	ld	a5,0(a5)
   12c3a:	953a                	add	a0,a0,a4
   12c3c:	777d                	lui	a4,0xfffff
   12c3e:	e11c                	sd	a5,0(a0)
   12c40:	77fd                	lui	a5,0xfffff
   12c42:	aa878793          	addi	a5,a5,-1368 # ffffffffffffeaa8 <__BSS_END__+0xfffffffffffd9220>
   12c46:	97a2                	add	a5,a5,s0
   12c48:	aa070713          	addi	a4,a4,-1376 # ffffffffffffeaa0 <__BSS_END__+0xfffffffffffd9218>
   12c4c:	0187b023          	sd	s8,0(a5)
   12c50:	9722                	add	a4,a4,s0
   12c52:	02000793          	li	a5,32
   12c56:	e31c                	sd	a5,0(a4)
   12c58:	77fd                	lui	a5,0xfffff
   12c5a:	f9040613          	addi	a2,s0,-112
   12c5e:	b8078693          	addi	a3,a5,-1152 # ffffffffffffeb80 <__BSS_END__+0xfffffffffffd92f8>
   12c62:	b8878713          	addi	a4,a5,-1144
   12c66:	00f60d33          	add	s10,a2,a5
   12c6a:	00d607b3          	add	a5,a2,a3
   12c6e:	76fd                	lui	a3,0xfffff
   12c70:	af068693          	addi	a3,a3,-1296 # ffffffffffffeaf0 <__BSS_END__+0xfffffffffffd9268>
   12c74:	96a2                	add	a3,a3,s0
   12c76:	e29c                	sd	a5,0(a3)
   12c78:	00e607b3          	add	a5,a2,a4
   12c7c:	777d                	lui	a4,0xfffff
   12c7e:	ad070713          	addi	a4,a4,-1328 # ffffffffffffead0 <__BSS_END__+0xfffffffffffd9248>
   12c82:	9722                	add	a4,a4,s0
   12c84:	4a81                	li	s5,0
   12c86:	e31c                	sd	a5,0(a4)
   12c88:	1b2040ef          	jal	ra,16e3a <__locale_mb_cur_max>
   12c8c:	d35500e3          	beq	a0,s5,129ac <__svfscanf_r+0x8d8>
   12c90:	000db703          	ld	a4,0(s11)
   12c94:	008da683          	lw	a3,8(s11)
   12c98:	015d0633          	add	a2,s10,s5
   12c9c:	00074583          	lbu	a1,0(a4)
   12ca0:	36fd                	addiw	a3,a3,-1
   12ca2:	0705                	addi	a4,a4,1
   12ca4:	001a8b9b          	addiw	s7,s5,1
   12ca8:	00edb023          	sd	a4,0(s11)
   12cac:	c8b60823          	sb	a1,-880(a2)
   12cb0:	00dda423          	sw	a3,8(s11)
   12cb4:	470d                	li	a4,3
   12cb6:	8cde                	mv	s9,s7
   12cb8:	00e49763          	bne	s1,a4,12cc6 <__svfscanf_r+0xbf2>
   12cbc:	b80d2683          	lw	a3,-1152(s10)
   12cc0:	4711                	li	a4,4
   12cc2:	00e68b63          	beq	a3,a4,12cd8 <__svfscanf_r+0xc04>
   12cc6:	77fd                	lui	a5,0xfffff
   12cc8:	af078793          	addi	a5,a5,-1296 # ffffffffffffeaf0 <__BSS_END__+0xfffffffffffd9268>
   12ccc:	97a2                	add	a5,a5,s0
   12cce:	6388                	ld	a0,0(a5)
   12cd0:	4621                	li	a2,8
   12cd2:	4581                	li	a1,0
   12cd4:	e08fd0ef          	jal	ra,102dc <memset>
   12cd8:	77fd                	lui	a5,0xfffff
   12cda:	af078793          	addi	a5,a5,-1296 # ffffffffffffeaf0 <__BSS_END__+0xfffffffffffd9268>
   12cde:	97a2                	add	a5,a5,s0
   12ce0:	6398                	ld	a4,0(a5)
   12ce2:	77fd                	lui	a5,0xfffff
   12ce4:	af878793          	addi	a5,a5,-1288 # ffffffffffffeaf8 <__BSS_END__+0xfffffffffffd9270>
   12ce8:	97a2                	add	a5,a5,s0
   12cea:	6390                	ld	a2,0(a5)
   12cec:	86de                	mv	a3,s7
   12cee:	85e2                	mv	a1,s8
   12cf0:	854e                	mv	a0,s3
   12cf2:	10f040ef          	jal	ra,17600 <_mbrtowc_r>
   12cf6:	56fd                	li	a3,-1
   12cf8:	84aa                	mv	s1,a0
   12cfa:	cad509e3          	beq	a0,a3,129ac <__svfscanf_r+0x8d8>
   12cfe:	38051be3          	bnez	a0,13894 <__svfscanf_r+0x17c0>
   12d02:	000c2023          	sw	zero,0(s8)
   12d06:	4701                	li	a4,0
   12d08:	77fd                	lui	a5,0xfffff
   12d0a:	ac078793          	addi	a5,a5,-1344 # ffffffffffffeac0 <__BSS_END__+0xfffffffffffd9238>
   12d0e:	97a2                	add	a5,a5,s0
   12d10:	e398                	sd	a4,0(a5)
   12d12:	77fd                	lui	a5,0xfffff
   12d14:	ad078793          	addi	a5,a5,-1328 # ffffffffffffead0 <__BSS_END__+0xfffffffffffd9248>
   12d18:	97a2                	add	a5,a5,s0
   12d1a:	6388                	ld	a0,0(a5)
   12d1c:	4621                	li	a2,8
   12d1e:	4581                	li	a1,0
   12d20:	dbcfd0ef          	jal	ra,102dc <memset>
   12d24:	77fd                	lui	a5,0xfffff
   12d26:	b7878593          	addi	a1,a5,-1160 # ffffffffffffeb78 <__BSS_END__+0xfffffffffffd92f0>
   12d2a:	ac078793          	addi	a5,a5,-1344
   12d2e:	97a2                	add	a5,a5,s0
   12d30:	6398                	ld	a4,0(a5)
   12d32:	77fd                	lui	a5,0xfffff
   12d34:	ad078793          	addi	a5,a5,-1328 # ffffffffffffead0 <__BSS_END__+0xfffffffffffd9248>
   12d38:	ce018693          	addi	a3,gp,-800 # 24d68 <__global_locale>
   12d3c:	97a2                	add	a5,a5,s0
   12d3e:	0e06b303          	ld	t1,224(a3)
   12d42:	6394                	ld	a3,0(a5)
   12d44:	f9040793          	addi	a5,s0,-112
   12d48:	863a                	mv	a2,a4
   12d4a:	95be                	add	a1,a1,a5
   12d4c:	854e                	mv	a0,s3
   12d4e:	9302                	jalr	t1
   12d50:	4685                	li	a3,1
   12d52:	4701                	li	a4,0
   12d54:	00d51463          	bne	a0,a3,12d5c <__svfscanf_r+0xc88>
   12d58:	b78d4703          	lbu	a4,-1160(s10)
   12d5c:	976a                	add	a4,a4,s10
   12d5e:	b9074703          	lbu	a4,-1136(a4)
   12d62:	e319                	bnez	a4,12d68 <__svfscanf_r+0xc94>
   12d64:	0c20106f          	j	13e26 <__svfscanf_r+0x1d52>
   12d68:	470d                	li	a4,3
   12d6a:	014c8a3b          	addw	s4,s9,s4
   12d6e:	0ce481e3          	beq	s1,a4,13630 <__svfscanf_r+0x155c>
   12d72:	77fd                	lui	a5,0xfffff
   12d74:	ab878793          	addi	a5,a5,-1352 # ffffffffffffeab8 <__BSS_END__+0xfffffffffffd9230>
   12d78:	97a2                	add	a5,a5,s0
   12d7a:	639c                	ld	a5,0(a5)
   12d7c:	1b7d                	addi	s6,s6,-1
   12d7e:	0c0795e3          	bnez	a5,13648 <__svfscanf_r+0x1574>
   12d82:	77fd                	lui	a5,0xfffff
   12d84:	ab078793          	addi	a5,a5,-1360 # ffffffffffffeab0 <__BSS_END__+0xfffffffffffd9228>
   12d88:	97a2                	add	a5,a5,s0
   12d8a:	639c                	ld	a5,0(a5)
   12d8c:	0c11                	addi	s8,s8,4
   12d8e:	0a078de3          	beqz	a5,13648 <__svfscanf_r+0x1574>
   12d92:	77fd                	lui	a5,0xfffff
   12d94:	aa878793          	addi	a5,a5,-1368 # ffffffffffffeaa8 <__BSS_END__+0xfffffffffffd9220>
   12d98:	97a2                	add	a5,a5,s0
   12d9a:	639c                	ld	a5,0(a5)
   12d9c:	4a81                	li	s5,0
   12d9e:	40fc0bb3          	sub	s7,s8,a5
   12da2:	77fd                	lui	a5,0xfffff
   12da4:	aa078793          	addi	a5,a5,-1376 # ffffffffffffeaa0 <__BSS_END__+0xfffffffffffd9218>
   12da8:	97a2                	add	a5,a5,s0
   12daa:	639c                	ld	a5,0(a5)
   12dac:	402bd713          	srai	a4,s7,0x2
   12db0:	3cf771e3          	bgeu	a4,a5,13972 <__svfscanf_r+0x189e>
   12db4:	008da703          	lw	a4,8(s11)
   12db8:	06e052e3          	blez	a4,1361c <__svfscanf_r+0x1548>
   12dbc:	ec0b16e3          	bnez	s6,12c88 <__svfscanf_r+0xbb4>
   12dc0:	77fd                	lui	a5,0xfffff
   12dc2:	ab878793          	addi	a5,a5,-1352 # ffffffffffffeab8 <__BSS_END__+0xfffffffffffd9230>
   12dc6:	97a2                	add	a5,a5,s0
   12dc8:	639c                	ld	a5,0(a5)
   12dca:	e3b5                	bnez	a5,12e2e <__svfscanf_r+0xd5a>
   12dcc:	77fd                	lui	a5,0xfffff
   12dce:	ab078793          	addi	a5,a5,-1360 # ffffffffffffeab0 <__BSS_END__+0xfffffffffffd9228>
   12dd2:	97a2                	add	a5,a5,s0
   12dd4:	639c                	ld	a5,0(a5)
   12dd6:	000c2023          	sw	zero,0(s8)
   12dda:	cf9d                	beqz	a5,12e18 <__svfscanf_r+0xd44>
   12ddc:	77fd                	lui	a5,0xfffff
   12dde:	aa878793          	addi	a5,a5,-1368 # ffffffffffffeaa8 <__BSS_END__+0xfffffffffffd9220>
   12de2:	97a2                	add	a5,a5,s0
   12de4:	639c                	ld	a5,0(a5)
   12de6:	40fc05b3          	sub	a1,s8,a5
   12dea:	77fd                	lui	a5,0xfffff
   12dec:	aa078793          	addi	a5,a5,-1376 # ffffffffffffeaa0 <__BSS_END__+0xfffffffffffd9218>
   12df0:	97a2                	add	a5,a5,s0
   12df2:	639c                	ld	a5,0(a5)
   12df4:	8589                	srai	a1,a1,0x2
   12df6:	0585                	addi	a1,a1,1
   12df8:	02f5f063          	bgeu	a1,a5,12e18 <__svfscanf_r+0xd44>
   12dfc:	77fd                	lui	a5,0xfffff
   12dfe:	ab078793          	addi	a5,a5,-1360 # ffffffffffffeab0 <__BSS_END__+0xfffffffffffd9228>
   12e02:	97a2                	add	a5,a5,s0
   12e04:	0007ba83          	ld	s5,0(a5)
   12e08:	058a                	slli	a1,a1,0x2
   12e0a:	000ab503          	ld	a0,0(s5)
   12e0e:	59e050ef          	jal	ra,183ac <realloc>
   12e12:	c119                	beqz	a0,12e18 <__svfscanf_r+0xd44>
   12e14:	00aab023          	sd	a0,0(s5)
   12e18:	77fd                	lui	a5,0xfffff
   12e1a:	ad878793          	addi	a5,a5,-1320 # ffffffffffffead8 <__BSS_END__+0xfffffffffffd9250>
   12e1e:	97a2                	add	a5,a5,s0
   12e20:	639c                	ld	a5,0(a5)
   12e22:	777d                	lui	a4,0xfffff
   12e24:	ad870713          	addi	a4,a4,-1320 # ffffffffffffead8 <__BSS_END__+0xfffffffffffd9250>
   12e28:	2785                	addiw	a5,a5,1
   12e2a:	9722                	add	a4,a4,s0
   12e2c:	e31c                	sd	a5,0(a4)
   12e2e:	77fd                	lui	a5,0xfffff
   12e30:	a8078793          	addi	a5,a5,-1408 # ffffffffffffea80 <__BSS_END__+0xfffffffffffd91f8>
   12e34:	97a2                	add	a5,a5,s0
   12e36:	0007ba83          	ld	s5,0(a5)
   12e3a:	b70ff06f          	j	121aa <__svfscanf_r+0xd6>
   12e3e:	85ee                	mv	a1,s11
   12e40:	854e                	mv	a0,s3
   12e42:	1e3050ef          	jal	ra,18824 <__srefill_r>
   12e46:	c6050563          	beqz	a0,122b0 <__svfscanf_r+0x1dc>
   12e4a:	b68d                	j	129ac <__svfscanf_r+0x8d8>
   12e4c:	77fd                	lui	a5,0xfffff
   12e4e:	ad078793          	addi	a5,a5,-1328 # ffffffffffffead0 <__BSS_END__+0xfffffffffffd9248>
   12e52:	6685                	lui	a3,0x1
   12e54:	97a2                	add	a5,a5,s0
   12e56:	fffb0713          	addi	a4,s6,-1
   12e5a:	36c68613          	addi	a2,a3,876 # 136c <register_fini-0xed44>
   12e5e:	0007b023          	sd	zero,0(a5)
   12e62:	00e67e63          	bgeu	a2,a4,12e7e <__svfscanf_r+0xdaa>
   12e66:	7c7d                	lui	s8,0xfffff
   12e68:	777d                	lui	a4,0xfffff
   12e6a:	c93c0c1b          	addiw	s8,s8,-877
   12e6e:	ad070713          	addi	a4,a4,-1328 # ffffffffffffead0 <__BSS_END__+0xfffffffffffd9248>
   12e72:	016c07bb          	addw	a5,s8,s6
   12e76:	9722                	add	a4,a4,s0
   12e78:	e31c                	sd	a5,0(a4)
   12e7a:	36d68b13          	addi	s6,a3,877
   12e7e:	77fd                	lui	a5,0xfffff
   12e80:	af078793          	addi	a5,a5,-1296 # ffffffffffffeaf0 <__BSS_END__+0xfffffffffffd9268>
   12e84:	97a2                	add	a5,a5,s0
   12e86:	0007b023          	sd	zero,0(a5)
   12e8a:	77fd                	lui	a5,0xfffff
   12e8c:	6d05                	lui	s10,0x1
   12e8e:	af878793          	addi	a5,a5,-1288 # ffffffffffffeaf8 <__BSS_END__+0xfffffffffffd9270>
   12e92:	d80d0313          	addi	t1,s10,-640 # d80 <register_fini-0xf330>
   12e96:	97a2                	add	a5,a5,s0
   12e98:	006cebb3          	or	s7,s9,t1
   12e9c:	0007bc83          	ld	s9,0(a5)
   12ea0:	77fd                	lui	a5,0xfffff
   12ea2:	04d00613          	li	a2,77
   12ea6:	0000f697          	auipc	a3,0xf
   12eaa:	76e68693          	addi	a3,a3,1902 # 22614 <zeroes.4541+0x33c>
   12eae:	47f78e93          	addi	t4,a5,1151 # fffffffffffff47f <__BSS_END__+0xfffffffffffd9bf7>
   12eb2:	00010c17          	auipc	s8,0x10
   12eb6:	89ec0c13          	addi	s8,s8,-1890 # 22750 <basefix.4592>
   12eba:	800d0d13          	addi	s10,s10,-2048
   12ebe:	000db583          	ld	a1,0(s11)
   12ec2:	0005c503          	lbu	a0,0(a1)
   12ec6:	fd55071b          	addiw	a4,a0,-43
   12eca:	0ff77713          	andi	a4,a4,255
   12ece:	04e66863          	bltu	a2,a4,12f1e <__svfscanf_r+0xe4a>
   12ed2:	070a                	slli	a4,a4,0x2
   12ed4:	9736                	add	a4,a4,a3
   12ed6:	4318                	lw	a4,0(a4)
   12ed8:	9736                	add	a4,a4,a3
   12eda:	8702                	jr	a4
   12edc:	600bf713          	andi	a4,s7,1536
   12ee0:	20000793          	li	a5,512
   12ee4:	02f71d63          	bne	a4,a5,12f1e <__svfscanf_r+0xe4a>
   12ee8:	777d                	lui	a4,0xfffff
   12eea:	ae870713          	addi	a4,a4,-1304 # ffffffffffffeae8 <__BSS_END__+0xfffffffffffd9260>
   12eee:	dffbf313          	andi	t1,s7,-513
   12ef2:	47c1                	li	a5,16
   12ef4:	9722                	add	a4,a4,s0
   12ef6:	50036b93          	ori	s7,t1,1280
   12efa:	e31c                	sd	a5,0(a4)
   12efc:	008da703          	lw	a4,8(s11)
   12f00:	00ac8023          	sb	a0,0(s9)
   12f04:	0c85                	addi	s9,s9,1
   12f06:	fff7051b          	addiw	a0,a4,-1
   12f0a:	00ada423          	sw	a0,8(s11)
   12f0e:	18a05163          	blez	a0,13090 <__svfscanf_r+0xfbc>
   12f12:	0585                	addi	a1,a1,1
   12f14:	00bdb023          	sd	a1,0(s11)
   12f18:	1b7d                	addi	s6,s6,-1
   12f1a:	fa0b12e3          	bnez	s6,12ebe <__svfscanf_r+0xdea>
   12f1e:	100bf713          	andi	a4,s7,256
   12f22:	cf19                	beqz	a4,12f40 <__svfscanf_r+0xe6c>
   12f24:	77fd                	lui	a5,0xfffff
   12f26:	af878793          	addi	a5,a5,-1288 # ffffffffffffeaf8 <__BSS_END__+0xfffffffffffd9270>
   12f2a:	97a2                	add	a5,a5,s0
   12f2c:	639c                	ld	a5,0(a5)
   12f2e:	7d97e163          	bltu	a5,s9,136f0 <__svfscanf_r+0x161c>
   12f32:	77fd                	lui	a5,0xfffff
   12f34:	af878793          	addi	a5,a5,-1288 # ffffffffffffeaf8 <__BSS_END__+0xfffffffffffd9270>
   12f38:	97a2                	add	a5,a5,s0
   12f3a:	639c                	ld	a5,0(a5)
   12f3c:	bafc8b63          	beq	s9,a5,122f2 <__svfscanf_r+0x21e>
   12f40:	010bf713          	andi	a4,s7,16
   12f44:	eb31                	bnez	a4,12f98 <__svfscanf_r+0xec4>
   12f46:	77fd                	lui	a5,0xfffff
   12f48:	ae878793          	addi	a5,a5,-1304 # ffffffffffffeae8 <__BSS_END__+0xfffffffffffd9260>
   12f4c:	97a2                	add	a5,a5,s0
   12f4e:	6394                	ld	a3,0(a5)
   12f50:	77fd                	lui	a5,0xfffff
   12f52:	af878793          	addi	a5,a5,-1288 # ffffffffffffeaf8 <__BSS_END__+0xfffffffffffd9270>
   12f56:	97a2                	add	a5,a5,s0
   12f58:	638c                	ld	a1,0(a5)
   12f5a:	77fd                	lui	a5,0xfffff
   12f5c:	ac878793          	addi	a5,a5,-1336 # ffffffffffffeac8 <__BSS_END__+0xfffffffffffd9240>
   12f60:	97a2                	add	a5,a5,s0
   12f62:	639c                	ld	a5,0(a5)
   12f64:	4601                	li	a2,0
   12f66:	854e                	mv	a0,s3
   12f68:	000c8023          	sb	zero,0(s9)
   12f6c:	9782                	jalr	a5
   12f6e:	020bf713          	andi	a4,s7,32
   12f72:	008a8c13          	addi	s8,s5,8
   12f76:	72070d63          	beqz	a4,136b0 <__svfscanf_r+0x15dc>
   12f7a:	000ab703          	ld	a4,0(s5)
   12f7e:	e308                	sd	a0,0(a4)
   12f80:	77fd                	lui	a5,0xfffff
   12f82:	ad878793          	addi	a5,a5,-1320 # ffffffffffffead8 <__BSS_END__+0xfffffffffffd9250>
   12f86:	97a2                	add	a5,a5,s0
   12f88:	639c                	ld	a5,0(a5)
   12f8a:	777d                	lui	a4,0xfffff
   12f8c:	ad870713          	addi	a4,a4,-1320 # ffffffffffffead8 <__BSS_END__+0xfffffffffffd9250>
   12f90:	2785                	addiw	a5,a5,1
   12f92:	9722                	add	a4,a4,s0
   12f94:	e31c                	sd	a5,0(a4)
   12f96:	8ae2                	mv	s5,s8
   12f98:	77fd                	lui	a5,0xfffff
   12f9a:	af878793          	addi	a5,a5,-1288 # ffffffffffffeaf8 <__BSS_END__+0xfffffffffffd9270>
   12f9e:	97a2                	add	a5,a5,s0
   12fa0:	639c                	ld	a5,0(a5)
   12fa2:	40fc8e33          	sub	t3,s9,a5
   12fa6:	77fd                	lui	a5,0xfffff
   12fa8:	af078793          	addi	a5,a5,-1296 # ffffffffffffeaf0 <__BSS_END__+0xfffffffffffd9268>
   12fac:	97a2                	add	a5,a5,s0
   12fae:	639c                	ld	a5,0(a5)
   12fb0:	0147883b          	addw	a6,a5,s4
   12fb4:	01c80a3b          	addw	s4,a6,t3
   12fb8:	9f2ff06f          	j	121aa <__svfscanf_r+0xd6>
   12fbc:	77fd                	lui	a5,0xfffff
   12fbe:	ae878793          	addi	a5,a5,-1304 # ffffffffffffeae8 <__BSS_END__+0xfffffffffffd9260>
   12fc2:	97a2                	add	a5,a5,s0
   12fc4:	639c                	ld	a5,0(a5)
   12fc6:	4729                	li	a4,10
   12fc8:	f4f75be3          	bge	a4,a5,12f1e <__svfscanf_r+0xe4a>
   12fcc:	01dbfbb3          	and	s7,s7,t4
   12fd0:	b735                	j	12efc <__svfscanf_r+0xe28>
   12fd2:	77fd                	lui	a5,0xfffff
   12fd4:	ae878793          	addi	a5,a5,-1304 # ffffffffffffeae8 <__BSS_END__+0xfffffffffffd9260>
   12fd8:	97a2                	add	a5,a5,s0
   12fda:	639c                	ld	a5,0(a5)
   12fdc:	01dbfbb3          	and	s7,s7,t4
   12fe0:	00179713          	slli	a4,a5,0x1
   12fe4:	9762                	add	a4,a4,s8
   12fe6:	00071783          	lh	a5,0(a4)
   12fea:	777d                	lui	a4,0xfffff
   12fec:	ae870713          	addi	a4,a4,-1304 # ffffffffffffeae8 <__BSS_END__+0xfffffffffffd9260>
   12ff0:	9722                	add	a4,a4,s0
   12ff2:	e31c                	sd	a5,0(a4)
   12ff4:	b721                	j	12efc <__svfscanf_r+0xe28>
   12ff6:	77fd                	lui	a5,0xfffff
   12ff8:	ae878793          	addi	a5,a5,-1304 # ffffffffffffeae8 <__BSS_END__+0xfffffffffffd9260>
   12ffc:	97a2                	add	a5,a5,s0
   12ffe:	639c                	ld	a5,0(a5)
   13000:	00179713          	slli	a4,a5,0x1
   13004:	9762                	add	a4,a4,s8
   13006:	00071783          	lh	a5,0(a4)
   1300a:	777d                	lui	a4,0xfffff
   1300c:	ae870713          	addi	a4,a4,-1304 # ffffffffffffeae8 <__BSS_END__+0xfffffffffffd9260>
   13010:	9722                	add	a4,a4,s0
   13012:	e31c                	sd	a5,0(a4)
   13014:	4721                	li	a4,8
   13016:	f0f754e3          	bge	a4,a5,12f1e <__svfscanf_r+0xe4a>
   1301a:	01dbfbb3          	and	s7,s7,t4
   1301e:	bdf9                	j	12efc <__svfscanf_r+0xe28>
   13020:	01abf733          	and	a4,s7,s10
   13024:	ec070ce3          	beqz	a4,12efc <__svfscanf_r+0xe28>
   13028:	77fd                	lui	a5,0xfffff
   1302a:	ae878793          	addi	a5,a5,-1304 # ffffffffffffeae8 <__BSS_END__+0xfffffffffffd9260>
   1302e:	97a2                	add	a5,a5,s0
   13030:	639c                	ld	a5,0(a5)
   13032:	eb89                	bnez	a5,13044 <__svfscanf_r+0xf70>
   13034:	777d                	lui	a4,0xfffff
   13036:	ae870713          	addi	a4,a4,-1304 # ffffffffffffeae8 <__BSS_END__+0xfffffffffffd9260>
   1303a:	47a1                	li	a5,8
   1303c:	9722                	add	a4,a4,s0
   1303e:	200beb93          	ori	s7,s7,512
   13042:	e31c                	sd	a5,0(a4)
   13044:	400bf713          	andi	a4,s7,1024
   13048:	60071663          	bnez	a4,13654 <__svfscanf_r+0x1580>
   1304c:	77fd                	lui	a5,0xfffff
   1304e:	ad078793          	addi	a5,a5,-1328 # ffffffffffffead0 <__BSS_END__+0xfffffffffffd9248>
   13052:	97a2                	add	a5,a5,s0
   13054:	639c                	ld	a5,0(a5)
   13056:	c7fbfb93          	andi	s7,s7,-897
   1305a:	cb81                	beqz	a5,1306a <__svfscanf_r+0xf96>
   1305c:	777d                	lui	a4,0xfffff
   1305e:	ad070713          	addi	a4,a4,-1328 # ffffffffffffead0 <__BSS_END__+0xfffffffffffd9248>
   13062:	37fd                	addiw	a5,a5,-1
   13064:	9722                	add	a4,a4,s0
   13066:	e31c                	sd	a5,0(a4)
   13068:	0b05                	addi	s6,s6,1
   1306a:	77fd                	lui	a5,0xfffff
   1306c:	af078793          	addi	a5,a5,-1296 # ffffffffffffeaf0 <__BSS_END__+0xfffffffffffd9268>
   13070:	97a2                	add	a5,a5,s0
   13072:	639c                	ld	a5,0(a5)
   13074:	777d                	lui	a4,0xfffff
   13076:	af070713          	addi	a4,a4,-1296 # ffffffffffffeaf0 <__BSS_END__+0xfffffffffffd9268>
   1307a:	9722                	add	a4,a4,s0
   1307c:	2785                	addiw	a5,a5,1
   1307e:	e31c                	sd	a5,0(a4)
   13080:	008da703          	lw	a4,8(s11)
   13084:	fff7051b          	addiw	a0,a4,-1
   13088:	00ada423          	sw	a0,8(s11)
   1308c:	e8a043e3          	bgtz	a0,12f12 <__svfscanf_r+0xe3e>
   13090:	85ee                	mv	a1,s11
   13092:	854e                	mv	a0,s3
   13094:	790050ef          	jal	ra,18824 <__srefill_r>
   13098:	77fd                	lui	a5,0xfffff
   1309a:	04d00613          	li	a2,77
   1309e:	0000f697          	auipc	a3,0xf
   130a2:	57668693          	addi	a3,a3,1398 # 22614 <zeroes.4541+0x33c>
   130a6:	47f78e93          	addi	t4,a5,1151 # fffffffffffff47f <__BSS_END__+0xfffffffffffd9bf7>
   130aa:	e60507e3          	beqz	a0,12f18 <__svfscanf_r+0xe44>
   130ae:	bd85                	j	12f1e <__svfscanf_r+0xe4a>
   130b0:	080bf713          	andi	a4,s7,128
   130b4:	e60705e3          	beqz	a4,12f1e <__svfscanf_r+0xe4a>
   130b8:	f7fbfb93          	andi	s7,s7,-129
   130bc:	b581                	j	12efc <__svfscanf_r+0xe28>
   130be:	000b1363          	bnez	s6,130c4 <__svfscanf_r+0xff0>
   130c2:	4b05                	li	s6,1
   130c4:	010cf693          	andi	a3,s9,16
   130c8:	0006879b          	sext.w	a5,a3
   130cc:	76fd                	lui	a3,0xfffff
   130ce:	af068693          	addi	a3,a3,-1296 # ffffffffffffeaf0 <__BSS_END__+0xfffffffffffd9268>
   130d2:	96a2                	add	a3,a3,s0
   130d4:	001cf713          	andi	a4,s9,1
   130d8:	e29c                	sd	a5,0(a3)
   130da:	42070963          	beqz	a4,1350c <__svfscanf_r+0x1438>
   130de:	72079e63          	bnez	a5,1381a <__svfscanf_r+0x1746>
   130e2:	777d                	lui	a4,0xfffff
   130e4:	ab070713          	addi	a4,a4,-1360 # ffffffffffffeab0 <__BSS_END__+0xfffffffffffd9228>
   130e8:	008a8793          	addi	a5,s5,8
   130ec:	9722                	add	a4,a4,s0
   130ee:	e31c                	sd	a5,0(a4)
   130f0:	000ab783          	ld	a5,0(s5)
   130f4:	777d                	lui	a4,0xfffff
   130f6:	ad070713          	addi	a4,a4,-1328 # ffffffffffffead0 <__BSS_END__+0xfffffffffffd9248>
   130fa:	9722                	add	a4,a4,s0
   130fc:	080cf313          	andi	t1,s9,128
   13100:	e31c                	sd	a5,0(a4)
   13102:	4a030ce3          	beqz	t1,13dba <__svfscanf_r+0x1ce6>
   13106:	92078a63          	beqz	a5,1223a <__svfscanf_r+0x166>
   1310a:	08000513          	li	a0,128
   1310e:	67d030ef          	jal	ra,16f8a <malloc>
   13112:	8c2a                	mv	s8,a0
   13114:	56050fe3          	beqz	a0,13e92 <__svfscanf_r+0x1dbe>
   13118:	77fd                	lui	a5,0xfffff
   1311a:	ae078793          	addi	a5,a5,-1312 # ffffffffffffeae0 <__BSS_END__+0xfffffffffffd9258>
   1311e:	97a2                	add	a5,a5,s0
   13120:	639c                	ld	a5,0(a5)
   13122:	76fd                	lui	a3,0xfffff
   13124:	ad068693          	addi	a3,a3,-1328 # ffffffffffffead0 <__BSS_END__+0xfffffffffffd9248>
   13128:	96a2                	add	a3,a3,s0
   1312a:	6294                	ld	a3,0(a3)
   1312c:	0087d703          	lhu	a4,8(a5)
   13130:	00a7dd03          	lhu	s10,10(a5)
   13134:	e288                	sd	a0,0(a3)
   13136:	0007069b          	sext.w	a3,a4
   1313a:	16dd7ee3          	bgeu	s10,a3,13ab6 <__svfscanf_r+0x19e2>
   1313e:	6388                	ld	a0,0(a5)
   13140:	77fd                	lui	a5,0xfffff
   13142:	ae078793          	addi	a5,a5,-1312 # ffffffffffffeae0 <__BSS_END__+0xfffffffffffd9258>
   13146:	97a2                	add	a5,a5,s0
   13148:	639c                	ld	a5,0(a5)
   1314a:	001d0c9b          	addiw	s9,s10,1
   1314e:	003d1713          	slli	a4,s10,0x3
   13152:	01979523          	sh	s9,10(a5)
   13156:	77fd                	lui	a5,0xfffff
   13158:	ad078793          	addi	a5,a5,-1328 # ffffffffffffead0 <__BSS_END__+0xfffffffffffd9248>
   1315c:	97a2                	add	a5,a5,s0
   1315e:	639c                	ld	a5,0(a5)
   13160:	953a                	add	a0,a0,a4
   13162:	777d                	lui	a4,0xfffff
   13164:	e11c                	sd	a5,0(a0)
   13166:	77fd                	lui	a5,0xfffff
   13168:	ac078793          	addi	a5,a5,-1344 # ffffffffffffeac0 <__BSS_END__+0xfffffffffffd9238>
   1316c:	97a2                	add	a5,a5,s0
   1316e:	ab870713          	addi	a4,a4,-1352 # ffffffffffffeab8 <__BSS_END__+0xfffffffffffd9230>
   13172:	0187b023          	sd	s8,0(a5)
   13176:	9722                	add	a4,a4,s0
   13178:	02000793          	li	a5,32
   1317c:	e31c                	sd	a5,0(a4)
   1317e:	77fd                	lui	a5,0xfffff
   13180:	f9040713          	addi	a4,s0,-112
   13184:	b8878c93          	addi	s9,a5,-1144 # ffffffffffffeb88 <__BSS_END__+0xfffffffffffd9300>
   13188:	4a81                	li	s5,0
   1318a:	00f70d33          	add	s10,a4,a5
   1318e:	9cba                	add	s9,s9,a4
   13190:	4ab030ef          	jal	ra,16e3a <__locale_mb_cur_max>
   13194:	81550ce3          	beq	a0,s5,129ac <__svfscanf_r+0x8d8>
   13198:	000db703          	ld	a4,0(s11)
   1319c:	008da683          	lw	a3,8(s11)
   131a0:	015d0633          	add	a2,s10,s5
   131a4:	00074583          	lbu	a1,0(a4)
   131a8:	36fd                	addiw	a3,a3,-1
   131aa:	0705                	addi	a4,a4,1
   131ac:	2a85                	addiw	s5,s5,1
   131ae:	c8b60823          	sb	a1,-880(a2)
   131b2:	00dda423          	sw	a3,8(s11)
   131b6:	00edb023          	sd	a4,0(s11)
   131ba:	478d                	li	a5,3
   131bc:	8bd6                	mv	s7,s5
   131be:	00f49763          	bne	s1,a5,131cc <__svfscanf_r+0x10f8>
   131c2:	b88d2703          	lw	a4,-1144(s10)
   131c6:	4791                	li	a5,4
   131c8:	00f70763          	beq	a4,a5,131d6 <__svfscanf_r+0x1102>
   131cc:	4621                	li	a2,8
   131ce:	4581                	li	a1,0
   131d0:	8566                	mv	a0,s9
   131d2:	90afd0ef          	jal	ra,102dc <memset>
   131d6:	77fd                	lui	a5,0xfffff
   131d8:	af878793          	addi	a5,a5,-1288 # ffffffffffffeaf8 <__BSS_END__+0xfffffffffffd9270>
   131dc:	97a2                	add	a5,a5,s0
   131de:	6390                	ld	a2,0(a5)
   131e0:	8766                	mv	a4,s9
   131e2:	86d6                	mv	a3,s5
   131e4:	85e2                	mv	a1,s8
   131e6:	854e                	mv	a0,s3
   131e8:	418040ef          	jal	ra,17600 <_mbrtowc_r>
   131ec:	577d                	li	a4,-1
   131ee:	84aa                	mv	s1,a0
   131f0:	fae50e63          	beq	a0,a4,129ac <__svfscanf_r+0x8d8>
   131f4:	66051a63          	bnez	a0,13868 <__svfscanf_r+0x1794>
   131f8:	77fd                	lui	a5,0xfffff
   131fa:	af078793          	addi	a5,a5,-1296 # ffffffffffffeaf0 <__BSS_END__+0xfffffffffffd9268>
   131fe:	97a2                	add	a5,a5,s0
   13200:	639c                	ld	a5,0(a5)
   13202:	e399                	bnez	a5,13208 <__svfscanf_r+0x1134>
   13204:	000c2023          	sw	zero,0(s8)
   13208:	014b8a3b          	addw	s4,s7,s4
   1320c:	77fd                	lui	a5,0xfffff
   1320e:	af078793          	addi	a5,a5,-1296 # ffffffffffffeaf0 <__BSS_END__+0xfffffffffffd9268>
   13212:	97a2                	add	a5,a5,s0
   13214:	639c                	ld	a5,0(a5)
   13216:	1b7d                	addi	s6,s6,-1
   13218:	66079c63          	bnez	a5,13890 <__svfscanf_r+0x17bc>
   1321c:	77fd                	lui	a5,0xfffff
   1321e:	ad078793          	addi	a5,a5,-1328 # ffffffffffffead0 <__BSS_END__+0xfffffffffffd9248>
   13222:	97a2                	add	a5,a5,s0
   13224:	639c                	ld	a5,0(a5)
   13226:	c38d                	beqz	a5,13248 <__svfscanf_r+0x1174>
   13228:	77fd                	lui	a5,0xfffff
   1322a:	ac078793          	addi	a5,a5,-1344 # ffffffffffffeac0 <__BSS_END__+0xfffffffffffd9238>
   1322e:	97a2                	add	a5,a5,s0
   13230:	639c                	ld	a5,0(a5)
   13232:	40fc0ab3          	sub	s5,s8,a5
   13236:	77fd                	lui	a5,0xfffff
   13238:	ab878793          	addi	a5,a5,-1352 # ffffffffffffeab8 <__BSS_END__+0xfffffffffffd9230>
   1323c:	97a2                	add	a5,a5,s0
   1323e:	639c                	ld	a5,0(a5)
   13240:	402ad713          	srai	a4,s5,0x2
   13244:	66f77b63          	bgeu	a4,a5,138ba <__svfscanf_r+0x17e6>
   13248:	0c11                	addi	s8,s8,4
   1324a:	4a81                	li	s5,0
   1324c:	008da703          	lw	a4,8(s11)
   13250:	3ae05c63          	blez	a4,13608 <__svfscanf_r+0x1534>
   13254:	f20b1ee3          	bnez	s6,13190 <__svfscanf_r+0x10bc>
   13258:	77fd                	lui	a5,0xfffff
   1325a:	ad078793          	addi	a5,a5,-1328 # ffffffffffffead0 <__BSS_END__+0xfffffffffffd9248>
   1325e:	97a2                	add	a5,a5,s0
   13260:	639c                	ld	a5,0(a5)
   13262:	c38d                	beqz	a5,13284 <__svfscanf_r+0x11b0>
   13264:	77fd                	lui	a5,0xfffff
   13266:	ac078793          	addi	a5,a5,-1344 # ffffffffffffeac0 <__BSS_END__+0xfffffffffffd9238>
   1326a:	97a2                	add	a5,a5,s0
   1326c:	639c                	ld	a5,0(a5)
   1326e:	40fc05b3          	sub	a1,s8,a5
   13272:	77fd                	lui	a5,0xfffff
   13274:	ab878793          	addi	a5,a5,-1352 # ffffffffffffeab8 <__BSS_END__+0xfffffffffffd9230>
   13278:	97a2                	add	a5,a5,s0
   1327a:	639c                	ld	a5,0(a5)
   1327c:	4025d713          	srai	a4,a1,0x2
   13280:	24f760e3          	bltu	a4,a5,13cc0 <__svfscanf_r+0x1bec>
   13284:	77fd                	lui	a5,0xfffff
   13286:	af078793          	addi	a5,a5,-1296 # ffffffffffffeaf0 <__BSS_END__+0xfffffffffffd9268>
   1328a:	97a2                	add	a5,a5,s0
   1328c:	639c                	ld	a5,0(a5)
   1328e:	ef81                	bnez	a5,132a6 <__svfscanf_r+0x11d2>
   13290:	77fd                	lui	a5,0xfffff
   13292:	ad878793          	addi	a5,a5,-1320 # ffffffffffffead8 <__BSS_END__+0xfffffffffffd9250>
   13296:	97a2                	add	a5,a5,s0
   13298:	639c                	ld	a5,0(a5)
   1329a:	777d                	lui	a4,0xfffff
   1329c:	ad870713          	addi	a4,a4,-1320 # ffffffffffffead8 <__BSS_END__+0xfffffffffffd9250>
   132a0:	2785                	addiw	a5,a5,1
   132a2:	9722                	add	a4,a4,s0
   132a4:	e31c                	sd	a5,0(a4)
   132a6:	77fd                	lui	a5,0xfffff
   132a8:	ab078793          	addi	a5,a5,-1360 # ffffffffffffeab0 <__BSS_END__+0xfffffffffffd9228>
   132ac:	97a2                	add	a5,a5,s0
   132ae:	0007ba83          	ld	s5,0(a5)
   132b2:	ef9fe06f          	j	121aa <__svfscanf_r+0xd6>
   132b6:	ffdd071b          	addiw	a4,s10,-3
   132ba:	0fd77713          	andi	a4,a4,253
   132be:	d8070a63          	beqz	a4,12852 <__svfscanf_r+0x77e>
   132c2:	c60b8d63          	beqz	s7,1273c <__svfscanf_r+0x668>
   132c6:	ae1d                	j	135fc <__svfscanf_r+0x1528>
   132c8:	4789                	li	a5,2
   132ca:	d6ff1e63          	bne	t5,a5,12846 <__svfscanf_r+0x772>
   132ce:	4f0d                	li	t5,3
   132d0:	c44ff06f          	j	12714 <__svfscanf_r+0x640>
   132d4:	120b98e3          	bnez	s7,13c04 <__svfscanf_r+0x1b30>
   132d8:	080cfc93          	andi	s9,s9,128
   132dc:	008a8b93          	addi	s7,s5,8
   132e0:	000abd03          	ld	s10,0(s5)
   132e4:	080c8ee3          	beqz	s9,13b80 <__svfscanf_r+0x1aac>
   132e8:	000d1463          	bnez	s10,132f0 <__svfscanf_r+0x121c>
   132ec:	806ff06f          	j	122f2 <__svfscanf_r+0x21e>
   132f0:	02000513          	li	a0,32
   132f4:	497030ef          	jal	ra,16f8a <malloc>
   132f8:	87aa                	mv	a5,a0
   132fa:	ec050763          	beqz	a0,129c8 <__svfscanf_r+0x8f4>
   132fe:	777d                	lui	a4,0xfffff
   13300:	ae070713          	addi	a4,a4,-1312 # ffffffffffffeae0 <__BSS_END__+0xfffffffffffd9258>
   13304:	9722                	add	a4,a4,s0
   13306:	6310                	ld	a2,0(a4)
   13308:	00ad3023          	sd	a0,0(s10)
   1330c:	00865703          	lhu	a4,8(a2)
   13310:	00a65c83          	lhu	s9,10(a2)
   13314:	00063a83          	ld	s5,0(a2)
   13318:	0007069b          	sext.w	a3,a4
   1331c:	04dceb63          	bltu	s9,a3,13372 <__svfscanf_r+0x129e>
   13320:	767d                	lui	a2,0xfffff
   13322:	ad060613          	addi	a2,a2,-1328 # ffffffffffffead0 <__BSS_END__+0xfffffffffffd9248>
   13326:	9622                	add	a2,a2,s0
   13328:	e208                	sd	a0,0(a2)
   1332a:	6641                	lui	a2,0x10
   1332c:	1659                	addi	a2,a2,-10
   1332e:	ead66963          	bltu	a2,a3,129e0 <__svfscanf_r+0x90c>
   13332:	77fd                	lui	a5,0xfffff
   13334:	2721                	addiw	a4,a4,8
   13336:	af078793          	addi	a5,a5,-1296 # ffffffffffffeaf0 <__BSS_END__+0xfffffffffffd9268>
   1333a:	97a2                	add	a5,a5,s0
   1333c:	00371593          	slli	a1,a4,0x3
   13340:	8556                	mv	a0,s5
   13342:	e398                	sd	a4,0(a5)
   13344:	068050ef          	jal	ra,183ac <realloc>
   13348:	e8050c63          	beqz	a0,129e0 <__svfscanf_r+0x90c>
   1334c:	77fd                	lui	a5,0xfffff
   1334e:	777d                	lui	a4,0xfffff
   13350:	ae078793          	addi	a5,a5,-1312 # ffffffffffffeae0 <__BSS_END__+0xfffffffffffd9258>
   13354:	af070713          	addi	a4,a4,-1296 # ffffffffffffeaf0 <__BSS_END__+0xfffffffffffd9268>
   13358:	97a2                	add	a5,a5,s0
   1335a:	9722                	add	a4,a4,s0
   1335c:	639c                	ld	a5,0(a5)
   1335e:	6318                	ld	a4,0(a4)
   13360:	8aaa                	mv	s5,a0
   13362:	e388                	sd	a0,0(a5)
   13364:	00e79423          	sh	a4,8(a5)
   13368:	77fd                	lui	a5,0xfffff
   1336a:	ad078793          	addi	a5,a5,-1328 # ffffffffffffead0 <__BSS_END__+0xfffffffffffd9248>
   1336e:	97a2                	add	a5,a5,s0
   13370:	639c                	ld	a5,0(a5)
   13372:	003c9713          	slli	a4,s9,0x3
   13376:	9aba                	add	s5,s5,a4
   13378:	777d                	lui	a4,0xfffff
   1337a:	ae070713          	addi	a4,a4,-1312 # ffffffffffffeae0 <__BSS_END__+0xfffffffffffd9258>
   1337e:	9722                	add	a4,a4,s0
   13380:	6318                	ld	a4,0(a4)
   13382:	2c85                	addiw	s9,s9,1
   13384:	01aab023          	sd	s10,0(s5)
   13388:	01971523          	sh	s9,10(a4)
   1338c:	02000a93          	li	s5,32
   13390:	000db683          	ld	a3,0(s11)
   13394:	8cbe                	mv	s9,a5
   13396:	0006c703          	lbu	a4,0(a3)
   1339a:	9762                	add	a4,a4,s8
   1339c:	00074703          	lbu	a4,0(a4)
   133a0:	8b21                	andi	a4,a4,8
   133a2:	e739                	bnez	a4,133f0 <__svfscanf_r+0x131c>
   133a4:	008da703          	lw	a4,8(s11)
   133a8:	00168613          	addi	a2,a3,1
   133ac:	00cdb023          	sd	a2,0(s11)
   133b0:	377d                	addiw	a4,a4,-1
   133b2:	00eda423          	sw	a4,8(s11)
   133b6:	0006c683          	lbu	a3,0(a3)
   133ba:	00178713          	addi	a4,a5,1
   133be:	00d78023          	sb	a3,0(a5)
   133c2:	000d0663          	beqz	s10,133ce <__svfscanf_r+0x12fa>
   133c6:	419707b3          	sub	a5,a4,s9
   133ca:	1157fbe3          	bgeu	a5,s5,13ce0 <__svfscanf_r+0x1c0c>
   133ce:	1b7d                	addi	s6,s6,-1
   133d0:	680b0b63          	beqz	s6,13a66 <__svfscanf_r+0x1992>
   133d4:	008da683          	lw	a3,8(s11)
   133d8:	66d05763          	blez	a3,13a46 <__svfscanf_r+0x1972>
   133dc:	000db683          	ld	a3,0(s11)
   133e0:	87ba                	mv	a5,a4
   133e2:	0006c703          	lbu	a4,0(a3)
   133e6:	9762                	add	a4,a4,s8
   133e8:	00074703          	lbu	a4,0(a4)
   133ec:	8b21                	andi	a4,a4,8
   133ee:	db5d                	beqz	a4,133a4 <__svfscanf_r+0x12d0>
   133f0:	00078023          	sb	zero,0(a5)
   133f4:	41978cb3          	sub	s9,a5,s9
   133f8:	000d0663          	beqz	s10,13404 <__svfscanf_r+0x1330>
   133fc:	001c8593          	addi	a1,s9,1
   13400:	7d55ed63          	bltu	a1,s5,13bda <__svfscanf_r+0x1b06>
   13404:	014c8a3b          	addw	s4,s9,s4
   13408:	aae1                	j	135e0 <__svfscanf_r+0x150c>
   1340a:	77fd                	lui	a5,0xfffff
   1340c:	ab878793          	addi	a5,a5,-1352 # ffffffffffffeab8 <__BSS_END__+0xfffffffffffd9230>
   13410:	97a2                	add	a5,a5,s0
   13412:	639c                	ld	a5,0(a5)
   13414:	34079063          	bnez	a5,13754 <__svfscanf_r+0x1680>
   13418:	777d                	lui	a4,0xfffff
   1341a:	af070713          	addi	a4,a4,-1296 # ffffffffffffeaf0 <__BSS_END__+0xfffffffffffd9268>
   1341e:	008a8793          	addi	a5,s5,8
   13422:	9722                	add	a4,a4,s0
   13424:	080cf313          	andi	t1,s9,128
   13428:	e31c                	sd	a5,0(a4)
   1342a:	000abd03          	ld	s10,0(s5)
   1342e:	180301e3          	beqz	t1,13db0 <__svfscanf_r+0x1cdc>
   13432:	000d1463          	bnez	s10,1343a <__svfscanf_r+0x1366>
   13436:	ebdfe06f          	j	122f2 <__svfscanf_r+0x21e>
   1343a:	02000513          	li	a0,32
   1343e:	34d030ef          	jal	ra,16f8a <malloc>
   13442:	8c2a                	mv	s8,a0
   13444:	d8050263          	beqz	a0,129c8 <__svfscanf_r+0x8f4>
   13448:	77fd                	lui	a5,0xfffff
   1344a:	ae078793          	addi	a5,a5,-1312 # ffffffffffffeae0 <__BSS_END__+0xfffffffffffd9258>
   1344e:	97a2                	add	a5,a5,s0
   13450:	639c                	ld	a5,0(a5)
   13452:	00ad3023          	sd	a0,0(s10)
   13456:	0087d703          	lhu	a4,8(a5)
   1345a:	00a7dc83          	lhu	s9,10(a5)
   1345e:	0007ba83          	ld	s5,0(a5)
   13462:	0007069b          	sext.w	a3,a4
   13466:	02dce863          	bltu	s9,a3,13496 <__svfscanf_r+0x13c2>
   1346a:	6641                	lui	a2,0x10
   1346c:	1659                	addi	a2,a2,-10
   1346e:	d6d66963          	bltu	a2,a3,129e0 <__svfscanf_r+0x90c>
   13472:	00870b9b          	addiw	s7,a4,8
   13476:	003b9593          	slli	a1,s7,0x3
   1347a:	8556                	mv	a0,s5
   1347c:	731040ef          	jal	ra,183ac <realloc>
   13480:	d6050063          	beqz	a0,129e0 <__svfscanf_r+0x90c>
   13484:	77fd                	lui	a5,0xfffff
   13486:	ae078793          	addi	a5,a5,-1312 # ffffffffffffeae0 <__BSS_END__+0xfffffffffffd9258>
   1348a:	97a2                	add	a5,a5,s0
   1348c:	639c                	ld	a5,0(a5)
   1348e:	8aaa                	mv	s5,a0
   13490:	e388                	sd	a0,0(a5)
   13492:	01779423          	sh	s7,8(a5)
   13496:	77fd                	lui	a5,0xfffff
   13498:	ae078793          	addi	a5,a5,-1312 # ffffffffffffeae0 <__BSS_END__+0xfffffffffffd9258>
   1349c:	97a2                	add	a5,a5,s0
   1349e:	639c                	ld	a5,0(a5)
   134a0:	003c9713          	slli	a4,s9,0x3
   134a4:	9aba                	add	s5,s5,a4
   134a6:	2c85                	addiw	s9,s9,1
   134a8:	01979523          	sh	s9,10(a5)
   134ac:	01aab023          	sd	s10,0(s5)
   134b0:	02000b93          	li	s7,32
   134b4:	8ce2                	mv	s9,s8
   134b6:	000db683          	ld	a3,0(s11)
   134ba:	77fd                	lui	a5,0xfffff
   134bc:	f9078793          	addi	a5,a5,-112 # ffffffffffffef90 <__BSS_END__+0xfffffffffffd9708>
   134c0:	0006c703          	lbu	a4,0(a3)
   134c4:	97a2                	add	a5,a5,s0
   134c6:	973e                	add	a4,a4,a5
   134c8:	b9074703          	lbu	a4,-1136(a4)
   134cc:	58070f63          	beqz	a4,13a6a <__svfscanf_r+0x1996>
   134d0:	008da703          	lw	a4,8(s11)
   134d4:	00168593          	addi	a1,a3,1
   134d8:	00bdb023          	sd	a1,0(s11)
   134dc:	377d                	addiw	a4,a4,-1
   134de:	00eda423          	sw	a4,8(s11)
   134e2:	0006c703          	lbu	a4,0(a3)
   134e6:	001c0a93          	addi	s5,s8,1
   134ea:	00ec0023          	sb	a4,0(s8)
   134ee:	000d0663          	beqz	s10,134fa <__svfscanf_r+0x1426>
   134f2:	419a8c33          	sub	s8,s5,s9
   134f6:	3b7c7563          	bgeu	s8,s7,138a0 <__svfscanf_r+0x17cc>
   134fa:	1b7d                	addi	s6,s6,-1
   134fc:	160b0763          	beqz	s6,1366a <__svfscanf_r+0x1596>
   13500:	008da703          	lw	a4,8(s11)
   13504:	14e05b63          	blez	a4,1365a <__svfscanf_r+0x1586>
   13508:	8c56                	mv	s8,s5
   1350a:	b775                	j	134b6 <__svfscanf_r+0x13e2>
   1350c:	77fd                	lui	a5,0xfffff
   1350e:	af078793          	addi	a5,a5,-1296 # ffffffffffffeaf0 <__BSS_END__+0xfffffffffffd9268>
   13512:	97a2                	add	a5,a5,s0
   13514:	639c                	ld	a5,0(a5)
   13516:	1e079d63          	bnez	a5,13710 <__svfscanf_r+0x163c>
   1351a:	080cf313          	andi	t1,s9,128
   1351e:	008a8b93          	addi	s7,s5,8
   13522:	000abd03          	ld	s10,0(s5)
   13526:	50030463          	beqz	t1,13a2e <__svfscanf_r+0x195a>
   1352a:	000d1463          	bnez	s10,13532 <__svfscanf_r+0x145e>
   1352e:	dc5fe06f          	j	122f2 <__svfscanf_r+0x21e>
   13532:	855a                	mv	a0,s6
   13534:	257030ef          	jal	ra,16f8a <malloc>
   13538:	8c2a                	mv	s8,a0
   1353a:	c8050763          	beqz	a0,129c8 <__svfscanf_r+0x8f4>
   1353e:	77fd                	lui	a5,0xfffff
   13540:	ae078793          	addi	a5,a5,-1312 # ffffffffffffeae0 <__BSS_END__+0xfffffffffffd9258>
   13544:	97a2                	add	a5,a5,s0
   13546:	639c                	ld	a5,0(a5)
   13548:	00ad3023          	sd	a0,0(s10)
   1354c:	0087d703          	lhu	a4,8(a5)
   13550:	00a7dc83          	lhu	s9,10(a5)
   13554:	0007ba83          	ld	s5,0(a5)
   13558:	0007069b          	sext.w	a3,a4
   1355c:	04dce163          	bltu	s9,a3,1359e <__svfscanf_r+0x14ca>
   13560:	6641                	lui	a2,0x10
   13562:	1659                	addi	a2,a2,-10
   13564:	c6d66e63          	bltu	a2,a3,129e0 <__svfscanf_r+0x90c>
   13568:	77fd                	lui	a5,0xfffff
   1356a:	2721                	addiw	a4,a4,8
   1356c:	af078793          	addi	a5,a5,-1296 # ffffffffffffeaf0 <__BSS_END__+0xfffffffffffd9268>
   13570:	97a2                	add	a5,a5,s0
   13572:	00371593          	slli	a1,a4,0x3
   13576:	8556                	mv	a0,s5
   13578:	e398                	sd	a4,0(a5)
   1357a:	633040ef          	jal	ra,183ac <realloc>
   1357e:	c6050163          	beqz	a0,129e0 <__svfscanf_r+0x90c>
   13582:	77fd                	lui	a5,0xfffff
   13584:	777d                	lui	a4,0xfffff
   13586:	ae078793          	addi	a5,a5,-1312 # ffffffffffffeae0 <__BSS_END__+0xfffffffffffd9258>
   1358a:	af070713          	addi	a4,a4,-1296 # ffffffffffffeaf0 <__BSS_END__+0xfffffffffffd9268>
   1358e:	97a2                	add	a5,a5,s0
   13590:	9722                	add	a4,a4,s0
   13592:	639c                	ld	a5,0(a5)
   13594:	6318                	ld	a4,0(a4)
   13596:	8aaa                	mv	s5,a0
   13598:	e388                	sd	a0,0(a5)
   1359a:	00e79423          	sh	a4,8(a5)
   1359e:	77fd                	lui	a5,0xfffff
   135a0:	ae078793          	addi	a5,a5,-1312 # ffffffffffffeae0 <__BSS_END__+0xfffffffffffd9258>
   135a4:	97a2                	add	a5,a5,s0
   135a6:	001c871b          	addiw	a4,s9,1
   135aa:	639c                	ld	a5,0(a5)
   135ac:	003c9693          	slli	a3,s9,0x3
   135b0:	03071c93          	slli	s9,a4,0x30
   135b4:	030cdc93          	srli	s9,s9,0x30
   135b8:	00da8733          	add	a4,s5,a3
   135bc:	01a73023          	sd	s10,0(a4)
   135c0:	85e2                	mv	a1,s8
   135c2:	01979523          	sh	s9,10(a5)
   135c6:	876e                	mv	a4,s11
   135c8:	86da                	mv	a3,s6
   135ca:	4605                	li	a2,1
   135cc:	854e                	mv	a0,s3
   135ce:	162010ef          	jal	ra,14730 <_fread_r>
   135d2:	8c2a                	mv	s8,a0
   135d4:	220501e3          	beqz	a0,13ff6 <__svfscanf_r+0x1f22>
   135d8:	61656c63          	bltu	a0,s6,13bf0 <__svfscanf_r+0x1b1c>
   135dc:	014c0a3b          	addw	s4,s8,s4
   135e0:	77fd                	lui	a5,0xfffff
   135e2:	ad878793          	addi	a5,a5,-1320 # ffffffffffffead8 <__BSS_END__+0xfffffffffffd9250>
   135e6:	97a2                	add	a5,a5,s0
   135e8:	639c                	ld	a5,0(a5)
   135ea:	777d                	lui	a4,0xfffff
   135ec:	ad870713          	addi	a4,a4,-1320 # ffffffffffffead8 <__BSS_END__+0xfffffffffffd9250>
   135f0:	2785                	addiw	a5,a5,1
   135f2:	9722                	add	a4,a4,s0
   135f4:	e31c                	sd	a5,0(a4)
   135f6:	8ade                	mv	s5,s7
   135f8:	bb3fe06f          	j	121aa <__svfscanf_r+0xd6>
   135fc:	effc7313          	andi	t1,s8,-257
   13600:	00030c1b          	sext.w	s8,t1
   13604:	938ff06f          	j	1273c <__svfscanf_r+0x668>
   13608:	85ee                	mv	a1,s11
   1360a:	854e                	mv	a0,s3
   1360c:	218050ef          	jal	ra,18824 <__srefill_r>
   13610:	c40502e3          	beqz	a0,13254 <__svfscanf_r+0x1180>
   13614:	c40a82e3          	beqz	s5,13258 <__svfscanf_r+0x1184>
   13618:	b94ff06f          	j	129ac <__svfscanf_r+0x8d8>
   1361c:	85ee                	mv	a1,s11
   1361e:	854e                	mv	a0,s3
   13620:	204050ef          	jal	ra,18824 <__srefill_r>
   13624:	f8050c63          	beqz	a0,12dbc <__svfscanf_r+0xce8>
   13628:	f80a8c63          	beqz	s5,12dc0 <__svfscanf_r+0xcec>
   1362c:	b80ff06f          	j	129ac <__svfscanf_r+0x8d8>
   13630:	b80d2683          	lw	a3,-1152(s10)
   13634:	4711                	li	a4,4
   13636:	f2e69e63          	bne	a3,a4,12d72 <__svfscanf_r+0xc9e>
   1363a:	77fd                	lui	a5,0xfffff
   1363c:	ab878793          	addi	a5,a5,-1352 # ffffffffffffeab8 <__BSS_END__+0xfffffffffffd9230>
   13640:	97a2                	add	a5,a5,s0
   13642:	639c                	ld	a5,0(a5)
   13644:	f2078f63          	beqz	a5,12d82 <__svfscanf_r+0xcae>
   13648:	4a81                	li	s5,0
   1364a:	f6aff06f          	j	12db4 <__svfscanf_r+0xce0>
   1364e:	1b7d                	addi	s6,s6,-1
   13650:	8ccff06f          	j	1271c <__svfscanf_r+0x648>
   13654:	a7fbfb93          	andi	s7,s7,-1409
   13658:	b055                	j	12efc <__svfscanf_r+0xe28>
   1365a:	85ee                	mv	a1,s11
   1365c:	854e                	mv	a0,s3
   1365e:	1c6050ef          	jal	ra,18824 <__srefill_r>
   13662:	ea0503e3          	beqz	a0,13508 <__svfscanf_r+0x1434>
   13666:	b59a8363          	beq	s5,s9,129ac <__svfscanf_r+0x8d8>
   1366a:	419a8cbb          	subw	s9,s5,s9
   1366e:	000c9463          	bnez	s9,13676 <__svfscanf_r+0x15a2>
   13672:	c81fe06f          	j	122f2 <__svfscanf_r+0x21e>
   13676:	000a8023          	sb	zero,0(s5)
   1367a:	000d0663          	beqz	s10,13686 <__svfscanf_r+0x15b2>
   1367e:	001c859b          	addiw	a1,s9,1
   13682:	7775ea63          	bltu	a1,s7,13df6 <__svfscanf_r+0x1d22>
   13686:	77fd                	lui	a5,0xfffff
   13688:	ad878793          	addi	a5,a5,-1320 # ffffffffffffead8 <__BSS_END__+0xfffffffffffd9250>
   1368c:	97a2                	add	a5,a5,s0
   1368e:	639c                	ld	a5,0(a5)
   13690:	777d                	lui	a4,0xfffff
   13692:	ad870713          	addi	a4,a4,-1320 # ffffffffffffead8 <__BSS_END__+0xfffffffffffd9250>
   13696:	2785                	addiw	a5,a5,1
   13698:	9722                	add	a4,a4,s0
   1369a:	e31c                	sd	a5,0(a4)
   1369c:	77fd                	lui	a5,0xfffff
   1369e:	af078793          	addi	a5,a5,-1296 # ffffffffffffeaf0 <__BSS_END__+0xfffffffffffd9268>
   136a2:	97a2                	add	a5,a5,s0
   136a4:	019a0a3b          	addw	s4,s4,s9
   136a8:	0007ba83          	ld	s5,0(a5)
   136ac:	afffe06f          	j	121aa <__svfscanf_r+0xd6>
   136b0:	008bf713          	andi	a4,s7,8
   136b4:	46070963          	beqz	a4,13b26 <__svfscanf_r+0x1a52>
   136b8:	000ab703          	ld	a4,0(s5)
   136bc:	00a70023          	sb	a0,0(a4)
   136c0:	b0c1                	j	12f80 <__svfscanf_r+0xeac>
   136c2:	ad078793          	addi	a5,a5,-1328
   136c6:	97a2                	add	a5,a5,s0
   136c8:	639c                	ld	a5,0(a5)
   136ca:	41778633          	sub	a2,a5,s7
   136ce:	8f778e63          	beq	a5,s7,127ca <__svfscanf_r+0x6f6>
   136d2:	f7940713          	addi	a4,s0,-135
   136d6:	00ece463          	bltu	s9,a4,136de <__svfscanf_r+0x160a>
   136da:	f7840c93          	addi	s9,s0,-136
   136de:	0000f597          	auipc	a1,0xf
   136e2:	09a58593          	addi	a1,a1,154 # 22778 <basefix.4592+0x28>
   136e6:	8566                	mv	a0,s9
   136e8:	43e050ef          	jal	ra,18b26 <sprintf>
   136ec:	8deff06f          	j	127ca <__svfscanf_r+0x6f6>
   136f0:	fffcc583          	lbu	a1,-1(s9)
   136f4:	866e                	mv	a2,s11
   136f6:	854e                	mv	a0,s3
   136f8:	1cfd                	addi	s9,s9,-1
   136fa:	3b1080ef          	jal	ra,1c2aa <_ungetc_r>
   136fe:	835ff06f          	j	12f32 <__svfscanf_r+0xe5e>
   13702:	002bc583          	lbu	a1,2(s7)
   13706:	008cec93          	ori	s9,s9,8
   1370a:	0b89                	addi	s7,s7,2
   1370c:	af5fe06f          	j	12200 <__svfscanf_r+0x12c>
   13710:	4b81                	li	s7,0
   13712:	a829                	j	1372c <__svfscanf_r+0x1658>
   13714:	96ba                	add	a3,a3,a4
   13716:	00ddb023          	sd	a3,0(s11)
   1371a:	85ee                	mv	a1,s11
   1371c:	854e                	mv	a0,s3
   1371e:	9bba                	add	s7,s7,a4
   13720:	40eb0b33          	sub	s6,s6,a4
   13724:	100050ef          	jal	ra,18824 <__srefill_r>
   13728:	6e051063          	bnez	a0,13e08 <__svfscanf_r+0x1d34>
   1372c:	008da703          	lw	a4,8(s11)
   13730:	000b061b          	sext.w	a2,s6
   13734:	000db683          	ld	a3,0(s11)
   13738:	fcc74ee3          	blt	a4,a2,13714 <__svfscanf_r+0x1640>
   1373c:	4167073b          	subw	a4,a4,s6
   13740:	96da                	add	a3,a3,s6
   13742:	9bda                	add	s7,s7,s6
   13744:	00eda423          	sw	a4,8(s11)
   13748:	00ddb023          	sd	a3,0(s11)
   1374c:	014b8a3b          	addw	s4,s7,s4
   13750:	a5bfe06f          	j	121aa <__svfscanf_r+0xd6>
   13754:	000db683          	ld	a3,0(s11)
   13758:	1b7d                	addi	s6,s6,-1
   1375a:	4b81                	li	s7,0
   1375c:	0006c703          	lbu	a4,0(a3)
   13760:	77fd                	lui	a5,0xfffff
   13762:	f9078793          	addi	a5,a5,-112 # ffffffffffffef90 <__BSS_END__+0xfffffffffffd9708>
   13766:	97a2                	add	a5,a5,s0
   13768:	973e                	add	a4,a4,a5
   1376a:	b9074703          	lbu	a4,-1136(a4)
   1376e:	000b8c1b          	sext.w	s8,s7
   13772:	2e070e63          	beqz	a4,13a6e <__svfscanf_r+0x199a>
   13776:	008da703          	lw	a4,8(s11)
   1377a:	0685                	addi	a3,a3,1
   1377c:	00ddb023          	sd	a3,0(s11)
   13780:	377d                	addiw	a4,a4,-1
   13782:	00eda423          	sw	a4,8(s11)
   13786:	2c05                	addiw	s8,s8,1
   13788:	2f7b0763          	beq	s6,s7,13a76 <__svfscanf_r+0x19a2>
   1378c:	00e05463          	blez	a4,13794 <__svfscanf_r+0x16c0>
   13790:	0b85                	addi	s7,s7,1
   13792:	b7e9                	j	1375c <__svfscanf_r+0x1688>
   13794:	85ee                	mv	a1,s11
   13796:	854e                	mv	a0,s3
   13798:	08c050ef          	jal	ra,18824 <__srefill_r>
   1379c:	2c051d63          	bnez	a0,13a76 <__svfscanf_r+0x19a2>
   137a0:	000db683          	ld	a3,0(s11)
   137a4:	0b85                	addi	s7,s7,1
   137a6:	bf5d                	j	1375c <__svfscanf_r+0x1688>
   137a8:	77fd                	lui	a5,0xfffff
   137aa:	b7c78e13          	addi	t3,a5,-1156 # ffffffffffffeb7c <__BSS_END__+0xfffffffffffd92f4>
   137ae:	ab878793          	addi	a5,a5,-1352
   137b2:	97a2                	add	a5,a5,s0
   137b4:	0007b023          	sd	zero,0(a5)
   137b8:	77fd                	lui	a5,0xfffff
   137ba:	ab078793          	addi	a5,a5,-1360 # ffffffffffffeab0 <__BSS_END__+0xfffffffffffd9228>
   137be:	97a2                	add	a5,a5,s0
   137c0:	0007b023          	sd	zero,0(a5)
   137c4:	77fd                	lui	a5,0xfffff
   137c6:	af078793          	addi	a5,a5,-1296 # ffffffffffffeaf0 <__BSS_END__+0xfffffffffffd9268>
   137ca:	97a2                	add	a5,a5,s0
   137cc:	0007b023          	sd	zero,0(a5)
   137d0:	f9040793          	addi	a5,s0,-112
   137d4:	01c78cb3          	add	s9,a5,t3
   137d8:	d7dfe06f          	j	12554 <__svfscanf_r+0x480>
   137dc:	77fd                	lui	a5,0xfffff
   137de:	b7c78c13          	addi	s8,a5,-1156 # ffffffffffffeb7c <__BSS_END__+0xfffffffffffd92f4>
   137e2:	a8078793          	addi	a5,a5,-1408
   137e6:	97a2                	add	a5,a5,s0
   137e8:	0157b023          	sd	s5,0(a5)
   137ec:	77fd                	lui	a5,0xfffff
   137ee:	aa078793          	addi	a5,a5,-1376 # ffffffffffffeaa0 <__BSS_END__+0xfffffffffffd9218>
   137f2:	97a2                	add	a5,a5,s0
   137f4:	0007b023          	sd	zero,0(a5)
   137f8:	77fd                	lui	a5,0xfffff
   137fa:	aa878793          	addi	a5,a5,-1368 # ffffffffffffeaa8 <__BSS_END__+0xfffffffffffd9220>
   137fe:	97a2                	add	a5,a5,s0
   13800:	0007b023          	sd	zero,0(a5)
   13804:	77fd                	lui	a5,0xfffff
   13806:	ab078793          	addi	a5,a5,-1360 # ffffffffffffeab0 <__BSS_END__+0xfffffffffffd9228>
   1380a:	97a2                	add	a5,a5,s0
   1380c:	0007b023          	sd	zero,0(a5)
   13810:	f9040793          	addi	a5,s0,-112
   13814:	9c3e                	add	s8,s8,a5
   13816:	c42ff06f          	j	12c58 <__svfscanf_r+0xb84>
   1381a:	77fd                	lui	a5,0xfffff
   1381c:	ab078793          	addi	a5,a5,-1360 # ffffffffffffeab0 <__BSS_END__+0xfffffffffffd9228>
   13820:	97a2                	add	a5,a5,s0
   13822:	0157b023          	sd	s5,0(a5)
   13826:	77fd                	lui	a5,0xfffff
   13828:	ab878793          	addi	a5,a5,-1352 # ffffffffffffeab8 <__BSS_END__+0xfffffffffffd9230>
   1382c:	97a2                	add	a5,a5,s0
   1382e:	0007b023          	sd	zero,0(a5)
   13832:	77fd                	lui	a5,0xfffff
   13834:	ac078793          	addi	a5,a5,-1344 # ffffffffffffeac0 <__BSS_END__+0xfffffffffffd9238>
   13838:	97a2                	add	a5,a5,s0
   1383a:	0007b023          	sd	zero,0(a5)
   1383e:	77fd                	lui	a5,0xfffff
   13840:	ad078793          	addi	a5,a5,-1328 # ffffffffffffead0 <__BSS_END__+0xfffffffffffd9248>
   13844:	97a2                	add	a5,a5,s0
   13846:	0007b023          	sd	zero,0(a5)
   1384a:	4c01                	li	s8,0
   1384c:	ba0d                	j	1317e <__svfscanf_r+0x10aa>
   1384e:	777d                	lui	a4,0xfffff
   13850:	1141                	addi	sp,sp,-16
   13852:	ae070713          	addi	a4,a4,-1312 # ffffffffffffeae0 <__BSS_END__+0xfffffffffffd9258>
   13856:	878a                	mv	a5,sp
   13858:	9722                	add	a4,a4,s0
   1385a:	e31c                	sd	a5,0(a4)
   1385c:	0007b023          	sd	zero,0(a5)
   13860:	0007a423          	sw	zero,8(a5)
   13864:	afcff06f          	j	12b60 <__svfscanf_r+0xa8c>
   13868:	5779                	li	a4,-2
   1386a:	9ee501e3          	beq	a0,a4,1324c <__svfscanf_r+0x1178>
   1386e:	478d                	li	a5,3
   13870:	014b8a3b          	addw	s4,s7,s4
   13874:	98f51ce3          	bne	a0,a5,1320c <__svfscanf_r+0x1138>
   13878:	b88d2703          	lw	a4,-1144(s10)
   1387c:	4791                	li	a5,4
   1387e:	98f717e3          	bne	a4,a5,1320c <__svfscanf_r+0x1138>
   13882:	77fd                	lui	a5,0xfffff
   13884:	af078793          	addi	a5,a5,-1296 # ffffffffffffeaf0 <__BSS_END__+0xfffffffffffd9268>
   13888:	97a2                	add	a5,a5,s0
   1388a:	639c                	ld	a5,0(a5)
   1388c:	980788e3          	beqz	a5,1321c <__svfscanf_r+0x1148>
   13890:	4a81                	li	s5,0
   13892:	ba6d                	j	1324c <__svfscanf_r+0x1178>
   13894:	5779                	li	a4,-2
   13896:	74e51863          	bne	a0,a4,13fe6 <__svfscanf_r+0x1f12>
   1389a:	8ade                	mv	s5,s7
   1389c:	d18ff06f          	j	12db4 <__svfscanf_r+0xce0>
   138a0:	0b86                	slli	s7,s7,0x1
   138a2:	8566                	mv	a0,s9
   138a4:	85de                	mv	a1,s7
   138a6:	307040ef          	jal	ra,183ac <realloc>
   138aa:	8caa                	mv	s9,a0
   138ac:	90050e63          	beqz	a0,129c8 <__svfscanf_r+0x8f4>
   138b0:	01850ab3          	add	s5,a0,s8
   138b4:	00ad3023          	sd	a0,0(s10)
   138b8:	b189                	j	134fa <__svfscanf_r+0x1426>
   138ba:	77fd                	lui	a5,0xfffff
   138bc:	ab878793          	addi	a5,a5,-1352 # ffffffffffffeab8 <__BSS_END__+0xfffffffffffd9230>
   138c0:	97a2                	add	a5,a5,s0
   138c2:	0007bb83          	ld	s7,0(a5)
   138c6:	77fd                	lui	a5,0xfffff
   138c8:	ac078793          	addi	a5,a5,-1344 # ffffffffffffeac0 <__BSS_END__+0xfffffffffffd9238>
   138cc:	97a2                	add	a5,a5,s0
   138ce:	6388                	ld	a0,0(a5)
   138d0:	003b9593          	slli	a1,s7,0x3
   138d4:	2d9040ef          	jal	ra,183ac <realloc>
   138d8:	777d                	lui	a4,0xfffff
   138da:	ac070713          	addi	a4,a4,-1344 # ffffffffffffeac0 <__BSS_END__+0xfffffffffffd9238>
   138de:	9722                	add	a4,a4,s0
   138e0:	e308                	sd	a0,0(a4)
   138e2:	5a050863          	beqz	a0,13e92 <__svfscanf_r+0x1dbe>
   138e6:	777d                	lui	a4,0xfffff
   138e8:	ad070713          	addi	a4,a4,-1328 # ffffffffffffead0 <__BSS_END__+0xfffffffffffd9248>
   138ec:	9722                	add	a4,a4,s0
   138ee:	6318                	ld	a4,0(a4)
   138f0:	001b9793          	slli	a5,s7,0x1
   138f4:	01550c33          	add	s8,a0,s5
   138f8:	e308                	sd	a0,0(a4)
   138fa:	777d                	lui	a4,0xfffff
   138fc:	ab870713          	addi	a4,a4,-1352 # ffffffffffffeab8 <__BSS_END__+0xfffffffffffd9230>
   13900:	9722                	add	a4,a4,s0
   13902:	e31c                	sd	a5,0(a4)
   13904:	b291                	j	13248 <__svfscanf_r+0x1174>
   13906:	85ee                	mv	a1,s11
   13908:	854e                	mv	a0,s3
   1390a:	71b040ef          	jal	ra,18824 <__srefill_r>
   1390e:	2a050563          	beqz	a0,13bb8 <__svfscanf_r+0x1ae4>
   13912:	77fd                	lui	a5,0xfffff
   13914:	ac078793          	addi	a5,a5,-1344 # ffffffffffffeac0 <__BSS_END__+0xfffffffffffd9238>
   13918:	97a2                	add	a5,a5,s0
   1391a:	639c                	ld	a5,0(a5)
   1391c:	88079863          	bnez	a5,129ac <__svfscanf_r+0x8d8>
   13920:	000b8463          	beqz	s7,13928 <__svfscanf_r+0x1854>
   13924:	887fe06f          	j	121aa <__svfscanf_r+0xd6>
   13928:	77fd                	lui	a5,0xfffff
   1392a:	af078793          	addi	a5,a5,-1296 # ffffffffffffeaf0 <__BSS_END__+0xfffffffffffd9268>
   1392e:	97a2                	add	a5,a5,s0
   13930:	639c                	ld	a5,0(a5)
   13932:	000ca023          	sw	zero,0(s9)
   13936:	c38d                	beqz	a5,13958 <__svfscanf_r+0x1884>
   13938:	77fd                	lui	a5,0xfffff
   1393a:	ab078793          	addi	a5,a5,-1360 # ffffffffffffeab0 <__BSS_END__+0xfffffffffffd9228>
   1393e:	97a2                	add	a5,a5,s0
   13940:	639c                	ld	a5,0(a5)
   13942:	40fc85b3          	sub	a1,s9,a5
   13946:	77fd                	lui	a5,0xfffff
   13948:	ab878793          	addi	a5,a5,-1352 # ffffffffffffeab8 <__BSS_END__+0xfffffffffffd9230>
   1394c:	97a2                	add	a5,a5,s0
   1394e:	639c                	ld	a5,0(a5)
   13950:	8589                	srai	a1,a1,0x2
   13952:	0585                	addi	a1,a1,1
   13954:	50f5ea63          	bltu	a1,a5,13e68 <__svfscanf_r+0x1d94>
   13958:	77fd                	lui	a5,0xfffff
   1395a:	ad878793          	addi	a5,a5,-1320 # ffffffffffffead8 <__BSS_END__+0xfffffffffffd9250>
   1395e:	97a2                	add	a5,a5,s0
   13960:	639c                	ld	a5,0(a5)
   13962:	777d                	lui	a4,0xfffff
   13964:	ad870713          	addi	a4,a4,-1320 # ffffffffffffead8 <__BSS_END__+0xfffffffffffd9250>
   13968:	2785                	addiw	a5,a5,1
   1396a:	9722                	add	a4,a4,s0
   1396c:	e31c                	sd	a5,0(a4)
   1396e:	83dfe06f          	j	121aa <__svfscanf_r+0xd6>
   13972:	77fd                	lui	a5,0xfffff
   13974:	aa078793          	addi	a5,a5,-1376 # ffffffffffffeaa0 <__BSS_END__+0xfffffffffffd9218>
   13978:	97a2                	add	a5,a5,s0
   1397a:	0007ba83          	ld	s5,0(a5)
   1397e:	77fd                	lui	a5,0xfffff
   13980:	aa878793          	addi	a5,a5,-1368 # ffffffffffffeaa8 <__BSS_END__+0xfffffffffffd9220>
   13984:	97a2                	add	a5,a5,s0
   13986:	6388                	ld	a0,0(a5)
   13988:	003a9593          	slli	a1,s5,0x3
   1398c:	221040ef          	jal	ra,183ac <realloc>
   13990:	777d                	lui	a4,0xfffff
   13992:	aa870713          	addi	a4,a4,-1368 # ffffffffffffeaa8 <__BSS_END__+0xfffffffffffd9220>
   13996:	9722                	add	a4,a4,s0
   13998:	e308                	sd	a0,0(a4)
   1399a:	4e050c63          	beqz	a0,13e92 <__svfscanf_r+0x1dbe>
   1399e:	777d                	lui	a4,0xfffff
   139a0:	ab070713          	addi	a4,a4,-1360 # ffffffffffffeab0 <__BSS_END__+0xfffffffffffd9228>
   139a4:	9722                	add	a4,a4,s0
   139a6:	6318                	ld	a4,0(a4)
   139a8:	001a9793          	slli	a5,s5,0x1
   139ac:	01750c33          	add	s8,a0,s7
   139b0:	e308                	sd	a0,0(a4)
   139b2:	777d                	lui	a4,0xfffff
   139b4:	aa070713          	addi	a4,a4,-1376 # ffffffffffffeaa0 <__BSS_END__+0xfffffffffffd9218>
   139b8:	9722                	add	a4,a4,s0
   139ba:	e31c                	sd	a5,0(a4)
   139bc:	77fd                	lui	a5,0xfffff
   139be:	ab878793          	addi	a5,a5,-1352 # ffffffffffffeab8 <__BSS_END__+0xfffffffffffd9230>
   139c2:	97a2                	add	a5,a5,s0
   139c4:	0007ba83          	ld	s5,0(a5)
   139c8:	becff06f          	j	12db4 <__svfscanf_r+0xce0>
   139cc:	4709                	li	a4,2
   139ce:	57a77c63          	bgeu	a4,s10,13f46 <__svfscanf_r+0x1e72>
   139d2:	470d                	li	a4,3
   139d4:	00ed1463          	bne	s10,a4,139dc <__svfscanf_r+0x1908>
   139d8:	d7ffe06f          	j	12756 <__svfscanf_r+0x682>
   139dc:	ffcd069b          	addiw	a3,s10,-4
   139e0:	0ff6fd13          	andi	s10,a3,255
   139e4:	fffd4793          	not	a5,s10
   139e8:	00fc8b33          	add	s6,s9,a5
   139ec:	1cfd                	addi	s9,s9,-1
   139ee:	000cc583          	lbu	a1,0(s9)
   139f2:	866e                	mv	a2,s11
   139f4:	854e                	mv	a0,s3
   139f6:	0b5080ef          	jal	ra,1c2aa <_ungetc_r>
   139fa:	ff9b19e3          	bne	s6,s9,139ec <__svfscanf_r+0x1918>
   139fe:	fffa081b          	addiw	a6,s4,-1
   13a02:	41a80a3b          	subw	s4,a6,s10
   13a06:	d51fe06f          	j	12756 <__svfscanf_r+0x682>
   13a0a:	374060ef          	jal	ra,19d7e <_strtod_r>
   13a0e:	000b8463          	beqz	s7,13a16 <__svfscanf_r+0x1942>
   13a12:	de9fe06f          	j	127fa <__svfscanf_r+0x726>
   13a16:	a2a52753          	feq.d	a4,fa0,fa0
   13a1a:	000aba83          	ld	s5,0(s5)
   13a1e:	54070963          	beqz	a4,13f70 <__svfscanf_r+0x1e9c>
   13a22:	40157553          	fcvt.s.d	fa0,fa0
   13a26:	00aaa027          	fsw	fa0,0(s5)
   13a2a:	dd7fe06f          	j	12800 <__svfscanf_r+0x72c>
   13a2e:	876e                	mv	a4,s11
   13a30:	86da                	mv	a3,s6
   13a32:	4605                	li	a2,1
   13a34:	85ea                	mv	a1,s10
   13a36:	854e                	mv	a0,s3
   13a38:	4f9000ef          	jal	ra,14730 <_fread_r>
   13a3c:	8c2a                	mv	s8,a0
   13a3e:	b8051fe3          	bnez	a0,135dc <__svfscanf_r+0x1508>
   13a42:	f6bfe06f          	j	129ac <__svfscanf_r+0x8d8>
   13a46:	77fd                	lui	a5,0xfffff
   13a48:	af078793          	addi	a5,a5,-1296 # ffffffffffffeaf0 <__BSS_END__+0xfffffffffffd9268>
   13a4c:	97a2                	add	a5,a5,s0
   13a4e:	85ee                	mv	a1,s11
   13a50:	854e                	mv	a0,s3
   13a52:	e398                	sd	a4,0(a5)
   13a54:	5d1040ef          	jal	ra,18824 <__srefill_r>
   13a58:	77fd                	lui	a5,0xfffff
   13a5a:	af078793          	addi	a5,a5,-1296 # ffffffffffffeaf0 <__BSS_END__+0xfffffffffffd9268>
   13a5e:	97a2                	add	a5,a5,s0
   13a60:	6398                	ld	a4,0(a5)
   13a62:	96050de3          	beqz	a0,133dc <__svfscanf_r+0x1308>
   13a66:	87ba                	mv	a5,a4
   13a68:	b261                	j	133f0 <__svfscanf_r+0x131c>
   13a6a:	8ae2                	mv	s5,s8
   13a6c:	befd                	j	1366a <__svfscanf_r+0x1596>
   13a6e:	000c1463          	bnez	s8,13a76 <__svfscanf_r+0x19a2>
   13a72:	881fe06f          	j	122f2 <__svfscanf_r+0x21e>
   13a76:	018a0a3b          	addw	s4,s4,s8
   13a7a:	f30fe06f          	j	121aa <__svfscanf_r+0xd6>
   13a7e:	6641                	lui	a2,0x10
   13a80:	1659                	addi	a2,a2,-10
   13a82:	42d66063          	bltu	a2,a3,13ea2 <__svfscanf_r+0x1dce>
   13a86:	77fd                	lui	a5,0xfffff
   13a88:	ae078793          	addi	a5,a5,-1312 # ffffffffffffeae0 <__BSS_END__+0xfffffffffffd9258>
   13a8c:	97a2                	add	a5,a5,s0
   13a8e:	639c                	ld	a5,0(a5)
   13a90:	00870a9b          	addiw	s5,a4,8
   13a94:	003a9593          	slli	a1,s5,0x3
   13a98:	6388                	ld	a0,0(a5)
   13a9a:	113040ef          	jal	ra,183ac <realloc>
   13a9e:	77fd                	lui	a5,0xfffff
   13aa0:	ae078793          	addi	a5,a5,-1312 # ffffffffffffeae0 <__BSS_END__+0xfffffffffffd9258>
   13aa4:	97a2                	add	a5,a5,s0
   13aa6:	639c                	ld	a5,0(a5)
   13aa8:	3e050b63          	beqz	a0,13e9e <__svfscanf_r+0x1dca>
   13aac:	e388                	sd	a0,0(a5)
   13aae:	01579423          	sh	s5,8(a5)
   13ab2:	a5bfe06f          	j	1250c <__svfscanf_r+0x438>
   13ab6:	6641                	lui	a2,0x10
   13ab8:	1659                	addi	a2,a2,-10
   13aba:	3ed66463          	bltu	a2,a3,13ea2 <__svfscanf_r+0x1dce>
   13abe:	77fd                	lui	a5,0xfffff
   13ac0:	ae078793          	addi	a5,a5,-1312 # ffffffffffffeae0 <__BSS_END__+0xfffffffffffd9258>
   13ac4:	97a2                	add	a5,a5,s0
   13ac6:	639c                	ld	a5,0(a5)
   13ac8:	00870a9b          	addiw	s5,a4,8
   13acc:	003a9593          	slli	a1,s5,0x3
   13ad0:	6388                	ld	a0,0(a5)
   13ad2:	0db040ef          	jal	ra,183ac <realloc>
   13ad6:	77fd                	lui	a5,0xfffff
   13ad8:	ae078793          	addi	a5,a5,-1312 # ffffffffffffeae0 <__BSS_END__+0xfffffffffffd9258>
   13adc:	97a2                	add	a5,a5,s0
   13ade:	639c                	ld	a5,0(a5)
   13ae0:	3a050f63          	beqz	a0,13e9e <__svfscanf_r+0x1dca>
