
basic_alu.o:     file format elf32-littleriscv


Disassembly of section .text:

00010054 <main>:
   10054:	fe010113          	addi	sp,sp,-32
   10058:	00112e23          	sw	ra,28(sp)
   1005c:	00812c23          	sw	s0,24(sp)
   10060:	02010413          	addi	s0,sp,32
   10064:	00a00793          	li	a5,10
   10068:	fef42623          	sw	a5,-20(s0)
   1006c:	0ac0006f          	j	10118 <main+0xc4>
   10070:	00a00793          	li	a5,10
   10074:	fef42423          	sw	a5,-24(s0)
   10078:	0880006f          	j	10100 <main+0xac>
   1007c:	00000613          	li	a2,0
   10080:	fe842583          	lw	a1,-24(s0)
   10084:	fec42503          	lw	a0,-20(s0)
   10088:	0b4000ef          	jal	ra,1013c <alu>
   1008c:	fea42223          	sw	a0,-28(s0)
   10090:	00100613          	li	a2,1
   10094:	fe842583          	lw	a1,-24(s0)
   10098:	fec42503          	lw	a0,-20(s0)
   1009c:	0a0000ef          	jal	ra,1013c <alu>
   100a0:	fea42223          	sw	a0,-28(s0)
   100a4:	00200613          	li	a2,2
   100a8:	fe842583          	lw	a1,-24(s0)
   100ac:	fec42503          	lw	a0,-20(s0)
   100b0:	08c000ef          	jal	ra,1013c <alu>
   100b4:	fea42223          	sw	a0,-28(s0)
   100b8:	00300613          	li	a2,3
   100bc:	fe842583          	lw	a1,-24(s0)
   100c0:	fec42503          	lw	a0,-20(s0)
   100c4:	078000ef          	jal	ra,1013c <alu>
   100c8:	fea42223          	sw	a0,-28(s0)
   100cc:	00400613          	li	a2,4
   100d0:	fe842583          	lw	a1,-24(s0)
   100d4:	fec42503          	lw	a0,-20(s0)
   100d8:	064000ef          	jal	ra,1013c <alu>
   100dc:	fea42223          	sw	a0,-28(s0)
   100e0:	00500613          	li	a2,5
   100e4:	fe842583          	lw	a1,-24(s0)
   100e8:	fec42503          	lw	a0,-20(s0)
   100ec:	050000ef          	jal	ra,1013c <alu>
   100f0:	fea42223          	sw	a0,-28(s0)
   100f4:	fe842783          	lw	a5,-24(s0)
   100f8:	00178793          	addi	a5,a5,1
   100fc:	fef42423          	sw	a5,-24(s0)
   10100:	fe842703          	lw	a4,-24(s0)
   10104:	00e00793          	li	a5,14
   10108:	f6e7dae3          	bge	a5,a4,1007c <main+0x28>
   1010c:	fec42783          	lw	a5,-20(s0)
   10110:	00178793          	addi	a5,a5,1
   10114:	fef42623          	sw	a5,-20(s0)
   10118:	fec42703          	lw	a4,-20(s0)
   1011c:	00e00793          	li	a5,14
   10120:	f4e7d8e3          	bge	a5,a4,10070 <main+0x1c>
   10124:	00000793          	li	a5,0
   10128:	00078513          	mv	a0,a5
   1012c:	01c12083          	lw	ra,28(sp)
   10130:	01812403          	lw	s0,24(sp)
   10134:	02010113          	addi	sp,sp,32
   10138:	00008067          	ret

0001013c <alu>:
   1013c:	fd010113          	addi	sp,sp,-48
   10140:	02812623          	sw	s0,44(sp)
   10144:	03010413          	addi	s0,sp,48
   10148:	fca42e23          	sw	a0,-36(s0)
   1014c:	fcb42c23          	sw	a1,-40(s0)
   10150:	fcc42a23          	sw	a2,-44(s0)
   10154:	fd442703          	lw	a4,-44(s0)
   10158:	00500793          	li	a5,5
   1015c:	0ae7ec63          	bltu	a5,a4,10214 <alu+0xd8>
   10160:	fd442783          	lw	a5,-44(s0)
   10164:	00279713          	slli	a4,a5,0x2
   10168:	000107b7          	lui	a5,0x10
   1016c:	22878793          	addi	a5,a5,552 # 10228 <alu+0xec>
   10170:	00f707b3          	add	a5,a4,a5
   10174:	0007a783          	lw	a5,0(a5)
   10178:	00078067          	jr	a5
   1017c:	fdc42703          	lw	a4,-36(s0)
   10180:	fd842783          	lw	a5,-40(s0)
   10184:	00f707b3          	add	a5,a4,a5
   10188:	fef42623          	sw	a5,-20(s0)
   1018c:	0880006f          	j	10214 <alu+0xd8>
   10190:	fdc42703          	lw	a4,-36(s0)
   10194:	fd842783          	lw	a5,-40(s0)
   10198:	40f707b3          	sub	a5,a4,a5
   1019c:	fef42623          	sw	a5,-20(s0)
   101a0:	0740006f          	j	10214 <alu+0xd8>
   101a4:	fdc42783          	lw	a5,-36(s0)
   101a8:	00079663          	bnez	a5,101b4 <alu+0x78>
   101ac:	fd842783          	lw	a5,-40(s0)
   101b0:	00078663          	beqz	a5,101bc <alu+0x80>
   101b4:	00100793          	li	a5,1
   101b8:	0080006f          	j	101c0 <alu+0x84>
   101bc:	00000793          	li	a5,0
   101c0:	fef42623          	sw	a5,-20(s0)
   101c4:	0500006f          	j	10214 <alu+0xd8>
   101c8:	fdc42783          	lw	a5,-36(s0)
   101cc:	00078a63          	beqz	a5,101e0 <alu+0xa4>
   101d0:	fd842783          	lw	a5,-40(s0)
   101d4:	00078663          	beqz	a5,101e0 <alu+0xa4>
   101d8:	00100793          	li	a5,1
   101dc:	0080006f          	j	101e4 <alu+0xa8>
   101e0:	00000793          	li	a5,0
   101e4:	fef42623          	sw	a5,-20(s0)
   101e8:	02c0006f          	j	10214 <alu+0xd8>
   101ec:	fdc42703          	lw	a4,-36(s0)
   101f0:	fd842783          	lw	a5,-40(s0)
   101f4:	00f777b3          	and	a5,a4,a5
   101f8:	fef42623          	sw	a5,-20(s0)
   101fc:	0180006f          	j	10214 <alu+0xd8>
   10200:	fdc42703          	lw	a4,-36(s0)
   10204:	fd842783          	lw	a5,-40(s0)
   10208:	00f767b3          	or	a5,a4,a5
   1020c:	fef42623          	sw	a5,-20(s0)
   10210:	00000013          	nop
   10214:	fec42783          	lw	a5,-20(s0)
   10218:	00078513          	mv	a0,a5
   1021c:	02c12403          	lw	s0,44(sp)
   10220:	03010113          	addi	sp,sp,48
   10224:	00008067          	ret
