
output.o:     file format elf32-littleriscv


Disassembly of section .text:

00010054 <main>:
   10054:	f2010113          	addi	sp,sp,-224
   10058:	0c112e23          	sw	ra,220(sp)
   1005c:	0c812c23          	sw	s0,216(sp)
   10060:	0e010413          	addi	s0,sp,224
   10064:	000107b7          	lui	a5,0x10
   10068:	34878713          	addi	a4,a5,840 # 10348 <memcpy+0x11c>
   1006c:	fa440793          	addi	a5,s0,-92
   10070:	00070693          	mv	a3,a4
   10074:	04000713          	li	a4,64
   10078:	00070613          	mv	a2,a4
   1007c:	00068593          	mv	a1,a3
   10080:	00078513          	mv	a0,a5
   10084:	1a8000ef          	jal	ra,1022c <memcpy>
   10088:	000107b7          	lui	a5,0x10
   1008c:	38878713          	addi	a4,a5,904 # 10388 <memcpy+0x15c>
   10090:	f6440793          	addi	a5,s0,-156
   10094:	00070693          	mv	a3,a4
   10098:	04000713          	li	a4,64
   1009c:	00070613          	mv	a2,a4
   100a0:	00068593          	mv	a1,a3
   100a4:	00078513          	mv	a0,a5
   100a8:	184000ef          	jal	ra,1022c <memcpy>
   100ac:	f2042223          	sw	zero,-220(s0)
   100b0:	f2042423          	sw	zero,-216(s0)
   100b4:	f2042623          	sw	zero,-212(s0)
   100b8:	f2042823          	sw	zero,-208(s0)
   100bc:	f2042a23          	sw	zero,-204(s0)
   100c0:	f2042c23          	sw	zero,-200(s0)
   100c4:	f2042e23          	sw	zero,-196(s0)
   100c8:	f4042023          	sw	zero,-192(s0)
   100cc:	f4042223          	sw	zero,-188(s0)
   100d0:	f4042423          	sw	zero,-184(s0)
   100d4:	f4042623          	sw	zero,-180(s0)
   100d8:	f4042823          	sw	zero,-176(s0)
   100dc:	f4042a23          	sw	zero,-172(s0)
   100e0:	f4042c23          	sw	zero,-168(s0)
   100e4:	f4042e23          	sw	zero,-164(s0)
   100e8:	f6042023          	sw	zero,-160(s0)
   100ec:	fe042623          	sw	zero,-20(s0)
   100f0:	0d80006f          	j	101c8 <main+0x174>
   100f4:	fe042423          	sw	zero,-24(s0)
   100f8:	0b80006f          	j	101b0 <main+0x15c>
   100fc:	fe042223          	sw	zero,-28(s0)
   10100:	0980006f          	j	10198 <main+0x144>
   10104:	fec42783          	lw	a5,-20(s0)
   10108:	00279713          	slli	a4,a5,0x2
   1010c:	fe842783          	lw	a5,-24(s0)
   10110:	00f707b3          	add	a5,a4,a5
   10114:	00279793          	slli	a5,a5,0x2
   10118:	ff040713          	addi	a4,s0,-16
   1011c:	00f707b3          	add	a5,a4,a5
   10120:	f347a703          	lw	a4,-204(a5)
   10124:	fec42783          	lw	a5,-20(s0)
   10128:	00279693          	slli	a3,a5,0x2
   1012c:	fe442783          	lw	a5,-28(s0)
   10130:	00f687b3          	add	a5,a3,a5
   10134:	00279793          	slli	a5,a5,0x2
   10138:	ff040693          	addi	a3,s0,-16
   1013c:	00f687b3          	add	a5,a3,a5
   10140:	fb47a683          	lw	a3,-76(a5)
   10144:	fe442783          	lw	a5,-28(s0)
   10148:	00279613          	slli	a2,a5,0x2
   1014c:	fe842783          	lw	a5,-24(s0)
   10150:	00f607b3          	add	a5,a2,a5
   10154:	00279793          	slli	a5,a5,0x2
   10158:	ff040613          	addi	a2,s0,-16
   1015c:	00f607b3          	add	a5,a2,a5
   10160:	f747a783          	lw	a5,-140(a5)
   10164:	02f687b3          	mul	a5,a3,a5
   10168:	00f70733          	add	a4,a4,a5
   1016c:	fec42783          	lw	a5,-20(s0)
   10170:	00279693          	slli	a3,a5,0x2
   10174:	fe842783          	lw	a5,-24(s0)
   10178:	00f687b3          	add	a5,a3,a5
   1017c:	00279793          	slli	a5,a5,0x2
   10180:	ff040693          	addi	a3,s0,-16
   10184:	00f687b3          	add	a5,a3,a5
   10188:	f2e7aa23          	sw	a4,-204(a5)
   1018c:	fe442783          	lw	a5,-28(s0)
   10190:	00178793          	addi	a5,a5,1
   10194:	fef42223          	sw	a5,-28(s0)
   10198:	fe442703          	lw	a4,-28(s0)
   1019c:	00300793          	li	a5,3
   101a0:	f6e7d2e3          	bge	a5,a4,10104 <main+0xb0>
   101a4:	fe842783          	lw	a5,-24(s0)
   101a8:	00178793          	addi	a5,a5,1
   101ac:	fef42423          	sw	a5,-24(s0)
   101b0:	fe842703          	lw	a4,-24(s0)
   101b4:	00300793          	li	a5,3
   101b8:	f4e7d2e3          	bge	a5,a4,100fc <main+0xa8>
   101bc:	fec42783          	lw	a5,-20(s0)
   101c0:	00178793          	addi	a5,a5,1
   101c4:	fef42623          	sw	a5,-20(s0)
   101c8:	fec42703          	lw	a4,-20(s0)
   101cc:	00300793          	li	a5,3
   101d0:	f2e7d2e3          	bge	a5,a4,100f4 <main+0xa0>
   101d4:	fe042623          	sw	zero,-20(s0)
   101d8:	0300006f          	j	10208 <main+0x1b4>
   101dc:	fe042423          	sw	zero,-24(s0)
   101e0:	0100006f          	j	101f0 <main+0x19c>
   101e4:	fe842783          	lw	a5,-24(s0)
   101e8:	00178793          	addi	a5,a5,1
   101ec:	fef42423          	sw	a5,-24(s0)
   101f0:	fe842703          	lw	a4,-24(s0)
   101f4:	00300793          	li	a5,3
   101f8:	fee7d6e3          	bge	a5,a4,101e4 <main+0x190>
   101fc:	fec42783          	lw	a5,-20(s0)
   10200:	00178793          	addi	a5,a5,1
   10204:	fef42623          	sw	a5,-20(s0)
   10208:	fec42703          	lw	a4,-20(s0)
   1020c:	00300793          	li	a5,3
   10210:	fce7d6e3          	bge	a5,a4,101dc <main+0x188>
   10214:	00000793          	li	a5,0
   10218:	00078513          	mv	a0,a5
   1021c:	0dc12083          	lw	ra,220(sp)
   10220:	0d812403          	lw	s0,216(sp)
   10224:	0e010113          	addi	sp,sp,224
   10228:	00008067          	ret

0001022c <memcpy>:
   1022c:	00a5c7b3          	xor	a5,a1,a0
   10230:	0037f793          	andi	a5,a5,3
   10234:	00c508b3          	add	a7,a0,a2
   10238:	06079263          	bnez	a5,1029c <memcpy+0x70>
   1023c:	00300793          	li	a5,3
   10240:	04c7fe63          	bgeu	a5,a2,1029c <memcpy+0x70>
   10244:	00357793          	andi	a5,a0,3
   10248:	00050713          	mv	a4,a0
   1024c:	06079863          	bnez	a5,102bc <memcpy+0x90>
   10250:	ffc8f613          	andi	a2,a7,-4
   10254:	fe060793          	addi	a5,a2,-32
   10258:	08f76c63          	bltu	a4,a5,102f0 <memcpy+0xc4>
   1025c:	02c77c63          	bgeu	a4,a2,10294 <memcpy+0x68>
   10260:	00058693          	mv	a3,a1
   10264:	00070793          	mv	a5,a4
   10268:	0006a803          	lw	a6,0(a3)
   1026c:	00478793          	addi	a5,a5,4
   10270:	00468693          	addi	a3,a3,4
   10274:	ff07ae23          	sw	a6,-4(a5)
   10278:	fec7e8e3          	bltu	a5,a2,10268 <memcpy+0x3c>
   1027c:	fff60793          	addi	a5,a2,-1
   10280:	40e787b3          	sub	a5,a5,a4
   10284:	ffc7f793          	andi	a5,a5,-4
   10288:	00478793          	addi	a5,a5,4
   1028c:	00f70733          	add	a4,a4,a5
   10290:	00f585b3          	add	a1,a1,a5
   10294:	01176863          	bltu	a4,a7,102a4 <memcpy+0x78>
   10298:	00008067          	ret
   1029c:	00050713          	mv	a4,a0
   102a0:	ff157ce3          	bgeu	a0,a7,10298 <memcpy+0x6c>
   102a4:	0005c783          	lbu	a5,0(a1)
   102a8:	00170713          	addi	a4,a4,1
   102ac:	00158593          	addi	a1,a1,1
   102b0:	fef70fa3          	sb	a5,-1(a4)
   102b4:	ff1768e3          	bltu	a4,a7,102a4 <memcpy+0x78>
   102b8:	00008067          	ret
   102bc:	0005c683          	lbu	a3,0(a1)
   102c0:	00170713          	addi	a4,a4,1
   102c4:	00377793          	andi	a5,a4,3
   102c8:	fed70fa3          	sb	a3,-1(a4)
   102cc:	00158593          	addi	a1,a1,1
   102d0:	f80780e3          	beqz	a5,10250 <memcpy+0x24>
   102d4:	0005c683          	lbu	a3,0(a1)
   102d8:	00170713          	addi	a4,a4,1
   102dc:	00377793          	andi	a5,a4,3
   102e0:	fed70fa3          	sb	a3,-1(a4)
   102e4:	00158593          	addi	a1,a1,1
   102e8:	fc079ae3          	bnez	a5,102bc <memcpy+0x90>
   102ec:	f65ff06f          	j	10250 <memcpy+0x24>
   102f0:	0005a683          	lw	a3,0(a1)
   102f4:	0045a283          	lw	t0,4(a1)
   102f8:	0085af83          	lw	t6,8(a1)
   102fc:	00c5af03          	lw	t5,12(a1)
   10300:	0105ae83          	lw	t4,16(a1)
   10304:	0145ae03          	lw	t3,20(a1)
   10308:	0185a303          	lw	t1,24(a1)
   1030c:	01c5a803          	lw	a6,28(a1)
   10310:	02458593          	addi	a1,a1,36
   10314:	00d72023          	sw	a3,0(a4)
   10318:	ffc5a683          	lw	a3,-4(a1)
   1031c:	00572223          	sw	t0,4(a4)
   10320:	01f72423          	sw	t6,8(a4)
   10324:	01e72623          	sw	t5,12(a4)
   10328:	01d72823          	sw	t4,16(a4)
   1032c:	01c72a23          	sw	t3,20(a4)
   10330:	00672c23          	sw	t1,24(a4)
   10334:	01072e23          	sw	a6,28(a4)
   10338:	02470713          	addi	a4,a4,36
   1033c:	fed72e23          	sw	a3,-4(a4)
   10340:	faf768e3          	bltu	a4,a5,102f0 <memcpy+0xc4>
   10344:	f19ff06f          	j	1025c <memcpy+0x30>
